
test/hello64_small.exe:     file format pei-x86-64


Disassembly of section .text:

0000000140001000 <__mingw_invalidParameterHandler>:
   140001000:	c3                   	ret    
   140001001:	66 66 2e 0f 1f 84 00 	data16 cs nopw 0x0(%rax,%rax,1)
   140001008:	00 00 00 00 
   14000100c:	0f 1f 40 00          	nopl   0x0(%rax)

0000000140001010 <pre_c_init>:
   140001010:	48 83 ec 28          	sub    $0x28,%rsp
   140001014:	48 8b 05 15 88 00 00 	mov    0x8815(%rip),%rax        # 140009830 <.refptr.mingw_initltsdrot_force>
   14000101b:	31 c9                	xor    %ecx,%ecx
   14000101d:	c7 00 01 00 00 00    	movl   $0x1,(%rax)
   140001023:	48 8b 05 16 88 00 00 	mov    0x8816(%rip),%rax        # 140009840 <.refptr.mingw_initltsdyn_force>
   14000102a:	c7 00 01 00 00 00    	movl   $0x1,(%rax)
   140001030:	48 8b 05 19 88 00 00 	mov    0x8819(%rip),%rax        # 140009850 <.refptr.mingw_initltssuo_force>
   140001037:	c7 00 01 00 00 00    	movl   $0x1,(%rax)
   14000103d:	48 8b 05 dc 87 00 00 	mov    0x87dc(%rip),%rax        # 140009820 <.refptr.mingw_initcharmax>
   140001044:	c7 00 01 00 00 00    	movl   $0x1,(%rax)
   14000104a:	48 8b 05 8f 86 00 00 	mov    0x868f(%rip),%rax        # 1400096e0 <.refptr.__image_base__>
   140001051:	66 81 38 4d 5a       	cmpw   $0x5a4d,(%rax)
   140001056:	75 0f                	jne    140001067 <pre_c_init+0x57>
   140001058:	48 63 50 3c          	movslq 0x3c(%rax),%rdx
   14000105c:	48 01 d0             	add    %rdx,%rax
   14000105f:	81 38 50 45 00 00    	cmpl   $0x4550,(%rax)
   140001065:	74 69                	je     1400010d0 <pre_c_init+0xc0>
   140001067:	48 8b 05 a2 87 00 00 	mov    0x87a2(%rip),%rax        # 140009810 <.refptr.mingw_app_type>
   14000106e:	89 0d 98 af 00 00    	mov    %ecx,0xaf98(%rip)        # 14000c00c <managedapp>
   140001074:	8b 00                	mov    (%rax),%eax
   140001076:	85 c0                	test   %eax,%eax
   140001078:	75 46                	jne    1400010c0 <pre_c_init+0xb0>
   14000107a:	b9 01 00 00 00       	mov    $0x1,%ecx
   14000107f:	e8 0c 62 00 00       	call   140007290 <__set_app_type>
   140001084:	e8 97 68 00 00       	call   140007920 <__p__fmode>
   140001089:	48 8b 15 40 87 00 00 	mov    0x8740(%rip),%rdx        # 1400097d0 <.refptr._fmode>
   140001090:	8b 12                	mov    (%rdx),%edx
   140001092:	89 10                	mov    %edx,(%rax)
   140001094:	e8 77 68 00 00       	call   140007910 <__p__commode>
   140001099:	48 8b 15 10 87 00 00 	mov    0x8710(%rip),%rdx        # 1400097b0 <.refptr._commode>
   1400010a0:	8b 12                	mov    (%rdx),%edx
   1400010a2:	89 10                	mov    %edx,(%rax)
   1400010a4:	e8 d7 05 00 00       	call   140001680 <_setargv>
   1400010a9:	48 8b 05 e0 85 00 00 	mov    0x85e0(%rip),%rax        # 140009690 <.refptr._MINGW_INSTALL_DEBUG_MATHERR>
   1400010b0:	83 38 01             	cmpl   $0x1,(%rax)
   1400010b3:	74 53                	je     140001108 <pre_c_init+0xf8>
   1400010b5:	31 c0                	xor    %eax,%eax
   1400010b7:	48 83 c4 28          	add    $0x28,%rsp
   1400010bb:	c3                   	ret    
   1400010bc:	0f 1f 40 00          	nopl   0x0(%rax)
   1400010c0:	b9 02 00 00 00       	mov    $0x2,%ecx
   1400010c5:	e8 c6 61 00 00       	call   140007290 <__set_app_type>
   1400010ca:	eb b8                	jmp    140001084 <pre_c_init+0x74>
   1400010cc:	0f 1f 40 00          	nopl   0x0(%rax)
   1400010d0:	0f b7 50 18          	movzwl 0x18(%rax),%edx
   1400010d4:	66 81 fa 0b 01       	cmp    $0x10b,%dx
   1400010d9:	74 45                	je     140001120 <pre_c_init+0x110>
   1400010db:	66 81 fa 0b 02       	cmp    $0x20b,%dx
   1400010e0:	75 85                	jne    140001067 <pre_c_init+0x57>
   1400010e2:	83 b8 84 00 00 00 0e 	cmpl   $0xe,0x84(%rax)
   1400010e9:	0f 86 78 ff ff ff    	jbe    140001067 <pre_c_init+0x57>
   1400010ef:	8b 90 f8 00 00 00    	mov    0xf8(%rax),%edx
   1400010f5:	31 c9                	xor    %ecx,%ecx
   1400010f7:	85 d2                	test   %edx,%edx
   1400010f9:	0f 95 c1             	setne  %cl
   1400010fc:	e9 66 ff ff ff       	jmp    140001067 <pre_c_init+0x57>
   140001101:	0f 1f 80 00 00 00 00 	nopl   0x0(%rax)
   140001108:	48 8d 0d 51 06 00 00 	lea    0x651(%rip),%rcx        # 140001760 <_matherr>
   14000110f:	e8 2c 0d 00 00       	call   140001e40 <__mingw_setusermatherr>
   140001114:	31 c0                	xor    %eax,%eax
   140001116:	48 83 c4 28          	add    $0x28,%rsp
   14000111a:	c3                   	ret    
   14000111b:	0f 1f 44 00 00       	nopl   0x0(%rax,%rax,1)
   140001120:	83 78 74 0e          	cmpl   $0xe,0x74(%rax)
   140001124:	0f 86 3d ff ff ff    	jbe    140001067 <pre_c_init+0x57>
   14000112a:	44 8b 80 e8 00 00 00 	mov    0xe8(%rax),%r8d
   140001131:	31 c9                	xor    %ecx,%ecx
   140001133:	45 85 c0             	test   %r8d,%r8d
   140001136:	0f 95 c1             	setne  %cl
   140001139:	e9 29 ff ff ff       	jmp    140001067 <pre_c_init+0x57>
   14000113e:	66 90                	xchg   %ax,%ax

0000000140001140 <pre_cpp_init>:
   140001140:	48 83 ec 38          	sub    $0x38,%rsp
   140001144:	48 8b 05 b5 86 00 00 	mov    0x86b5(%rip),%rax        # 140009800 <.refptr._newmode>
   14000114b:	4c 8d 05 c6 ae 00 00 	lea    0xaec6(%rip),%r8        # 14000c018 <envp>
   140001152:	48 8d 15 c7 ae 00 00 	lea    0xaec7(%rip),%rdx        # 14000c020 <argv>
   140001159:	48 8d 0d c8 ae 00 00 	lea    0xaec8(%rip),%rcx        # 14000c028 <argc>
   140001160:	8b 00                	mov    (%rax),%eax
   140001162:	89 05 9c ae 00 00    	mov    %eax,0xae9c(%rip)        # 14000c004 <startinfo>
   140001168:	48 8d 05 95 ae 00 00 	lea    0xae95(%rip),%rax        # 14000c004 <startinfo>
   14000116f:	48 89 44 24 20       	mov    %rax,0x20(%rsp)
   140001174:	48 8b 05 45 86 00 00 	mov    0x8645(%rip),%rax        # 1400097c0 <.refptr._dowildcard>
   14000117b:	44 8b 08             	mov    (%rax),%r9d
   14000117e:	e8 1d 61 00 00       	call   1400072a0 <__getmainargs>
   140001183:	90                   	nop
   140001184:	48 83 c4 38          	add    $0x38,%rsp
   140001188:	c3                   	ret    
   140001189:	0f 1f 80 00 00 00 00 	nopl   0x0(%rax)

0000000140001190 <__tmainCRTStartup>:
   140001190:	41 55                	push   %r13
   140001192:	41 54                	push   %r12
   140001194:	55                   	push   %rbp
   140001195:	57                   	push   %rdi
   140001196:	56                   	push   %rsi
   140001197:	53                   	push   %rbx
   140001198:	48 81 ec 98 00 00 00 	sub    $0x98,%rsp
   14000119f:	b9 0d 00 00 00       	mov    $0xd,%ecx
   1400011a4:	31 c0                	xor    %eax,%eax
   1400011a6:	4c 8d 44 24 20       	lea    0x20(%rsp),%r8
   1400011ab:	4c 89 c7             	mov    %r8,%rdi
   1400011ae:	f3 48 ab             	rep stos %rax,%es:(%rdi)
   1400011b1:	48 8b 3d 58 86 00 00 	mov    0x8658(%rip),%rdi        # 140009810 <.refptr.mingw_app_type>
   1400011b8:	44 8b 0f             	mov    (%rdi),%r9d
   1400011bb:	45 85 c9             	test   %r9d,%r9d
   1400011be:	0f 85 ac 02 00 00    	jne    140001470 <__tmainCRTStartup+0x2e0>
   1400011c4:	65 48 8b 04 25 30 00 	mov    %gs:0x30,%rax
   1400011cb:	00 00 
   1400011cd:	48 8b 1d 6c 85 00 00 	mov    0x856c(%rip),%rbx        # 140009740 <.refptr.__native_startup_lock>
   1400011d4:	48 8b 70 08          	mov    0x8(%rax),%rsi
   1400011d8:	31 ed                	xor    %ebp,%ebp
   1400011da:	4c 8b 25 3b c0 00 00 	mov    0xc03b(%rip),%r12        # 14000d21c <__imp_Sleep>
   1400011e1:	eb 16                	jmp    1400011f9 <__tmainCRTStartup+0x69>
   1400011e3:	0f 1f 44 00 00       	nopl   0x0(%rax,%rax,1)
   1400011e8:	48 39 c6             	cmp    %rax,%rsi
   1400011eb:	0f 84 1f 02 00 00    	je     140001410 <__tmainCRTStartup+0x280>
   1400011f1:	b9 e8 03 00 00       	mov    $0x3e8,%ecx
   1400011f6:	41 ff d4             	call   *%r12
   1400011f9:	48 89 e8             	mov    %rbp,%rax
   1400011fc:	f0 48 0f b1 33       	lock cmpxchg %rsi,(%rbx)
   140001201:	48 85 c0             	test   %rax,%rax
   140001204:	75 e2                	jne    1400011e8 <__tmainCRTStartup+0x58>
   140001206:	48 8b 35 43 85 00 00 	mov    0x8543(%rip),%rsi        # 140009750 <.refptr.__native_startup_state>
   14000120d:	31 ed                	xor    %ebp,%ebp
   14000120f:	8b 06                	mov    (%rsi),%eax
   140001211:	83 f8 01             	cmp    $0x1,%eax
   140001214:	0f 84 0d 02 00 00    	je     140001427 <__tmainCRTStartup+0x297>
   14000121a:	8b 06                	mov    (%rsi),%eax
   14000121c:	85 c0                	test   %eax,%eax
   14000121e:	0f 84 7c 02 00 00    	je     1400014a0 <__tmainCRTStartup+0x310>
   140001224:	c7 05 da ad 00 00 01 	movl   $0x1,0xadda(%rip)        # 14000c008 <has_cctor>
   14000122b:	00 00 00 
   14000122e:	8b 06                	mov    (%rsi),%eax
   140001230:	83 f8 01             	cmp    $0x1,%eax
   140001233:	0f 84 03 02 00 00    	je     14000143c <__tmainCRTStartup+0x2ac>
   140001239:	85 ed                	test   %ebp,%ebp
   14000123b:	0f 84 1c 02 00 00    	je     14000145d <__tmainCRTStartup+0x2cd>
   140001241:	48 8b 05 88 84 00 00 	mov    0x8488(%rip),%rax        # 1400096d0 <.refptr.__dyn_tls_init_callback>
   140001248:	48 8b 00             	mov    (%rax),%rax
   14000124b:	48 85 c0             	test   %rax,%rax
   14000124e:	74 0c                	je     14000125c <__tmainCRTStartup+0xcc>
   140001250:	45 31 c0             	xor    %r8d,%r8d
   140001253:	ba 02 00 00 00       	mov    $0x2,%edx
   140001258:	31 c9                	xor    %ecx,%ecx
   14000125a:	ff d0                	call   *%rax
   14000125c:	e8 9f 08 00 00       	call   140001b00 <_pei386_runtime_relocator>
   140001261:	48 8d 0d e8 0b 00 00 	lea    0xbe8(%rip),%rcx        # 140001e50 <_gnu_exception_handler>
   140001268:	ff 15 a6 bf 00 00    	call   *0xbfa6(%rip)        # 14000d214 <__imp_SetUnhandledExceptionFilter>
   14000126e:	48 8b 15 bb 84 00 00 	mov    0x84bb(%rip),%rdx        # 140009730 <.refptr.__mingw_oldexcpt_handler>
   140001275:	48 8d 0d 84 fd ff ff 	lea    -0x27c(%rip),%rcx        # 140001000 <__mingw_invalidParameterHandler>
   14000127c:	48 89 02             	mov    %rax,(%rdx)
   14000127f:	e8 9c 65 00 00       	call   140007820 <_set_invalid_parameter_handler>
   140001284:	e8 d7 05 00 00       	call   140001860 <_fpreset>
   140001289:	48 8b 05 50 84 00 00 	mov    0x8450(%rip),%rax        # 1400096e0 <.refptr.__image_base__>
   140001290:	48 89 05 f1 b8 00 00 	mov    %rax,0xb8f1(%rip)        # 14000cb88 <__mingw_winmain_hInstance>
   140001297:	e8 64 66 00 00       	call   140007900 <__p__acmdln>
   14000129c:	31 c9                	xor    %ecx,%ecx
   14000129e:	48 8b 00             	mov    (%rax),%rax
   1400012a1:	48 85 c0             	test   %rax,%rax
   1400012a4:	75 1c                	jne    1400012c2 <__tmainCRTStartup+0x132>
   1400012a6:	eb 58                	jmp    140001300 <__tmainCRTStartup+0x170>
   1400012a8:	0f 1f 84 00 00 00 00 	nopl   0x0(%rax,%rax,1)
   1400012af:	00 
   1400012b0:	84 d2                	test   %dl,%dl
   1400012b2:	74 45                	je     1400012f9 <__tmainCRTStartup+0x169>
   1400012b4:	83 e1 01             	and    $0x1,%ecx
   1400012b7:	74 27                	je     1400012e0 <__tmainCRTStartup+0x150>
   1400012b9:	b9 01 00 00 00       	mov    $0x1,%ecx
   1400012be:	48 83 c0 01          	add    $0x1,%rax
   1400012c2:	0f b6 10             	movzbl (%rax),%edx
   1400012c5:	80 fa 20             	cmp    $0x20,%dl
   1400012c8:	7e e6                	jle    1400012b0 <__tmainCRTStartup+0x120>
   1400012ca:	41 89 c8             	mov    %ecx,%r8d
   1400012cd:	41 83 f0 01          	xor    $0x1,%r8d
   1400012d1:	80 fa 22             	cmp    $0x22,%dl
   1400012d4:	41 0f 44 c8          	cmove  %r8d,%ecx
   1400012d8:	eb e4                	jmp    1400012be <__tmainCRTStartup+0x12e>
   1400012da:	66 0f 1f 44 00 00    	nopw   0x0(%rax,%rax,1)
   1400012e0:	84 d2                	test   %dl,%dl
   1400012e2:	74 15                	je     1400012f9 <__tmainCRTStartup+0x169>
   1400012e4:	0f 1f 40 00          	nopl   0x0(%rax)
   1400012e8:	0f b6 50 01          	movzbl 0x1(%rax),%edx
   1400012ec:	48 83 c0 01          	add    $0x1,%rax
   1400012f0:	84 d2                	test   %dl,%dl
   1400012f2:	74 05                	je     1400012f9 <__tmainCRTStartup+0x169>
   1400012f4:	80 fa 20             	cmp    $0x20,%dl
   1400012f7:	7e ef                	jle    1400012e8 <__tmainCRTStartup+0x158>
   1400012f9:	48 89 05 80 b8 00 00 	mov    %rax,0xb880(%rip)        # 14000cb80 <__mingw_winmain_lpCmdLine>
   140001300:	44 8b 07             	mov    (%rdi),%r8d
   140001303:	45 85 c0             	test   %r8d,%r8d
   140001306:	74 16                	je     14000131e <__tmainCRTStartup+0x18e>
   140001308:	b8 0a 00 00 00       	mov    $0xa,%eax
   14000130d:	f6 44 24 5c 01       	testb  $0x1,0x5c(%rsp)
   140001312:	0f 85 e8 00 00 00    	jne    140001400 <__tmainCRTStartup+0x270>
   140001318:	89 05 e2 6c 00 00    	mov    %eax,0x6ce2(%rip)        # 140008000 <__data_start__>
   14000131e:	8b 1d 04 ad 00 00    	mov    0xad04(%rip),%ebx        # 14000c028 <argc>
   140001324:	44 8d 63 01          	lea    0x1(%rbx),%r12d
   140001328:	4d 63 e4             	movslq %r12d,%r12
   14000132b:	49 c1 e4 03          	shl    $0x3,%r12
   14000132f:	4c 89 e1             	mov    %r12,%rcx
   140001332:	e8 e1 5e 00 00       	call   140007218 <malloc>
   140001337:	4c 8b 2d e2 ac 00 00 	mov    0xace2(%rip),%r13        # 14000c020 <argv>
   14000133e:	48 89 c7             	mov    %rax,%rdi
   140001341:	85 db                	test   %ebx,%ebx
   140001343:	7e 46                	jle    14000138b <__tmainCRTStartup+0x1fb>
   140001345:	8d 6b ff             	lea    -0x1(%rbx),%ebp
   140001348:	31 db                	xor    %ebx,%ebx
   14000134a:	66 0f 1f 44 00 00    	nopw   0x0(%rax,%rax,1)
   140001350:	49 8b 4c dd 00       	mov    0x0(%r13,%rbx,8),%rcx
   140001355:	e8 9e 5e 00 00       	call   1400071f8 <strlen>
   14000135a:	48 8d 70 01          	lea    0x1(%rax),%rsi
   14000135e:	48 89 f1             	mov    %rsi,%rcx
   140001361:	e8 b2 5e 00 00       	call   140007218 <malloc>
   140001366:	49 89 f0             	mov    %rsi,%r8
   140001369:	48 89 04 df          	mov    %rax,(%rdi,%rbx,8)
   14000136d:	49 8b 54 dd 00       	mov    0x0(%r13,%rbx,8),%rdx
   140001372:	48 89 c1             	mov    %rax,%rcx
   140001375:	e8 96 5e 00 00       	call   140007210 <memcpy>
   14000137a:	48 89 d8             	mov    %rbx,%rax
   14000137d:	48 83 c3 01          	add    $0x1,%rbx
   140001381:	48 39 c5             	cmp    %rax,%rbp
   140001384:	75 ca                	jne    140001350 <__tmainCRTStartup+0x1c0>
   140001386:	4a 8d 44 27 f8       	lea    -0x8(%rdi,%r12,1),%rax
   14000138b:	48 c7 00 00 00 00 00 	movq   $0x0,(%rax)
   140001392:	48 89 3d 87 ac 00 00 	mov    %rdi,0xac87(%rip)        # 14000c020 <argv>
   140001399:	e8 b2 02 00 00       	call   140001650 <__main>
   14000139e:	48 8b 05 4b 83 00 00 	mov    0x834b(%rip),%rax        # 1400096f0 <.refptr.__imp___initenv>
   1400013a5:	4c 8b 05 6c ac 00 00 	mov    0xac6c(%rip),%r8        # 14000c018 <envp>
   1400013ac:	8b 0d 76 ac 00 00    	mov    0xac76(%rip),%ecx        # 14000c028 <argc>
   1400013b2:	48 8b 00             	mov    (%rax),%rax
   1400013b5:	4c 89 00             	mov    %r8,(%rax)
   1400013b8:	48 8b 15 61 ac 00 00 	mov    0xac61(%rip),%rdx        # 14000c020 <argv>
   1400013bf:	e8 0c 66 00 00       	call   1400079d0 <main>
   1400013c4:	8b 0d 42 ac 00 00    	mov    0xac42(%rip),%ecx        # 14000c00c <managedapp>
   1400013ca:	89 05 40 ac 00 00    	mov    %eax,0xac40(%rip)        # 14000c010 <mainret>
   1400013d0:	85 c9                	test   %ecx,%ecx
   1400013d2:	0f 84 e6 00 00 00    	je     1400014be <__tmainCRTStartup+0x32e>
   1400013d8:	8b 15 2a ac 00 00    	mov    0xac2a(%rip),%edx        # 14000c008 <has_cctor>
   1400013de:	85 d2                	test   %edx,%edx
   1400013e0:	0f 84 9a 00 00 00    	je     140001480 <__tmainCRTStartup+0x2f0>
   1400013e6:	48 81 c4 98 00 00 00 	add    $0x98,%rsp
   1400013ed:	5b                   	pop    %rbx
   1400013ee:	5e                   	pop    %rsi
   1400013ef:	5f                   	pop    %rdi
   1400013f0:	5d                   	pop    %rbp
   1400013f1:	41 5c                	pop    %r12
   1400013f3:	41 5d                	pop    %r13
   1400013f5:	c3                   	ret    
   1400013f6:	66 2e 0f 1f 84 00 00 	cs nopw 0x0(%rax,%rax,1)
   1400013fd:	00 00 00 
   140001400:	0f b7 44 24 60       	movzwl 0x60(%rsp),%eax
   140001405:	e9 0e ff ff ff       	jmp    140001318 <__tmainCRTStartup+0x188>
   14000140a:	66 0f 1f 44 00 00    	nopw   0x0(%rax,%rax,1)
   140001410:	48 8b 35 39 83 00 00 	mov    0x8339(%rip),%rsi        # 140009750 <.refptr.__native_startup_state>
   140001417:	bd 01 00 00 00       	mov    $0x1,%ebp
   14000141c:	8b 06                	mov    (%rsi),%eax
   14000141e:	83 f8 01             	cmp    $0x1,%eax
   140001421:	0f 85 f3 fd ff ff    	jne    14000121a <__tmainCRTStartup+0x8a>
   140001427:	b9 1f 00 00 00       	mov    $0x1f,%ecx
   14000142c:	e8 4f 5e 00 00       	call   140007280 <_amsg_exit>
   140001431:	8b 06                	mov    (%rsi),%eax
   140001433:	83 f8 01             	cmp    $0x1,%eax
   140001436:	0f 85 fd fd ff ff    	jne    140001239 <__tmainCRTStartup+0xa9>
   14000143c:	48 8b 15 3d 83 00 00 	mov    0x833d(%rip),%rdx        # 140009780 <.refptr.__xc_z>
   140001443:	48 8b 0d 26 83 00 00 	mov    0x8326(%rip),%rcx        # 140009770 <.refptr.__xc_a>
   14000144a:	e8 19 5e 00 00       	call   140007268 <_initterm>
   14000144f:	c7 06 02 00 00 00    	movl   $0x2,(%rsi)
   140001455:	85 ed                	test   %ebp,%ebp
   140001457:	0f 85 e4 fd ff ff    	jne    140001241 <__tmainCRTStartup+0xb1>
   14000145d:	31 c0                	xor    %eax,%eax
   14000145f:	48 87 03             	xchg   %rax,(%rbx)
   140001462:	e9 da fd ff ff       	jmp    140001241 <__tmainCRTStartup+0xb1>
   140001467:	66 0f 1f 84 00 00 00 	nopw   0x0(%rax,%rax,1)
   14000146e:	00 00 
   140001470:	4c 89 c1             	mov    %r8,%rcx
   140001473:	ff 15 73 bd 00 00    	call   *0xbd73(%rip)        # 14000d1ec <__imp_GetStartupInfoA>
   140001479:	e9 46 fd ff ff       	jmp    1400011c4 <__tmainCRTStartup+0x34>
   14000147e:	66 90                	xchg   %ax,%ax
   140001480:	e8 f3 5d 00 00       	call   140007278 <_cexit>
   140001485:	8b 05 85 ab 00 00    	mov    0xab85(%rip),%eax        # 14000c010 <mainret>
   14000148b:	48 81 c4 98 00 00 00 	add    $0x98,%rsp
   140001492:	5b                   	pop    %rbx
   140001493:	5e                   	pop    %rsi
   140001494:	5f                   	pop    %rdi
   140001495:	5d                   	pop    %rbp
   140001496:	41 5c                	pop    %r12
   140001498:	41 5d                	pop    %r13
   14000149a:	c3                   	ret    
   14000149b:	0f 1f 44 00 00       	nopl   0x0(%rax,%rax,1)
   1400014a0:	48 8b 15 f9 82 00 00 	mov    0x82f9(%rip),%rdx        # 1400097a0 <.refptr.__xi_z>
   1400014a7:	48 8b 0d e2 82 00 00 	mov    0x82e2(%rip),%rcx        # 140009790 <.refptr.__xi_a>
   1400014ae:	c7 06 01 00 00 00    	movl   $0x1,(%rsi)
   1400014b4:	e8 af 5d 00 00       	call   140007268 <_initterm>
   1400014b9:	e9 70 fd ff ff       	jmp    14000122e <__tmainCRTStartup+0x9e>
   1400014be:	89 c1                	mov    %eax,%ecx
   1400014c0:	e8 83 5d 00 00       	call   140007248 <exit>
   1400014c5:	90                   	nop
   1400014c6:	66 2e 0f 1f 84 00 00 	cs nopw 0x0(%rax,%rax,1)
   1400014cd:	00 00 00 

00000001400014d0 <WinMainCRTStartup>:
   1400014d0:	48 83 ec 28          	sub    $0x28,%rsp

00000001400014d4 <.l_startw>:
   1400014d4:	48 8b 05 35 83 00 00 	mov    0x8335(%rip),%rax        # 140009810 <.refptr.mingw_app_type>
   1400014db:	c7 00 01 00 00 00    	movl   $0x1,(%rax)
   1400014e1:	e8 aa fc ff ff       	call   140001190 <__tmainCRTStartup>
   1400014e6:	90                   	nop

00000001400014e7 <.l_endw>:
   1400014e7:	90                   	nop
   1400014e8:	48 83 c4 28          	add    $0x28,%rsp
   1400014ec:	c3                   	ret    
   1400014ed:	0f 1f 00             	nopl   (%rax)

00000001400014f0 <mainCRTStartup>:
   1400014f0:	48 83 ec 28          	sub    $0x28,%rsp

00000001400014f4 <.l_start>:
   1400014f4:	48 8b 05 15 83 00 00 	mov    0x8315(%rip),%rax        # 140009810 <.refptr.mingw_app_type>
   1400014fb:	c7 00 00 00 00 00    	movl   $0x0,(%rax)
   140001501:	e8 8a fc ff ff       	call   140001190 <__tmainCRTStartup>
   140001506:	90                   	nop

0000000140001507 <.l_end>:
   140001507:	90                   	nop
   140001508:	48 83 c4 28          	add    $0x28,%rsp
   14000150c:	c3                   	ret    
   14000150d:	0f 1f 00             	nopl   (%rax)

0000000140001510 <atexit>:
   140001510:	48 83 ec 28          	sub    $0x28,%rsp
   140001514:	e8 47 5d 00 00       	call   140007260 <_onexit>
   140001519:	48 85 c0             	test   %rax,%rax
   14000151c:	0f 94 c0             	sete   %al
   14000151f:	0f b6 c0             	movzbl %al,%eax
   140001522:	f7 d8                	neg    %eax
   140001524:	48 83 c4 28          	add    $0x28,%rsp
   140001528:	c3                   	ret    
   140001529:	90                   	nop
   14000152a:	90                   	nop
   14000152b:	90                   	nop
   14000152c:	90                   	nop
   14000152d:	90                   	nop
   14000152e:	90                   	nop
   14000152f:	90                   	nop

0000000140001530 <__gcc_register_frame>:
   140001530:	48 8d 0d 09 00 00 00 	lea    0x9(%rip),%rcx        # 140001540 <__gcc_deregister_frame>
   140001537:	e9 d4 ff ff ff       	jmp    140001510 <atexit>
   14000153c:	0f 1f 40 00          	nopl   0x0(%rax)

0000000140001540 <__gcc_deregister_frame>:
   140001540:	c3                   	ret    
   140001541:	90                   	nop
   140001542:	90                   	nop
   140001543:	90                   	nop
   140001544:	90                   	nop
   140001545:	90                   	nop
   140001546:	90                   	nop
   140001547:	90                   	nop
   140001548:	90                   	nop
   140001549:	90                   	nop
   14000154a:	90                   	nop
   14000154b:	90                   	nop
   14000154c:	90                   	nop
   14000154d:	90                   	nop
   14000154e:	90                   	nop
   14000154f:	90                   	nop

0000000140001550 <printf.constprop.0>:
   140001550:	48 83 ec 48          	sub    $0x48,%rsp
   140001554:	b9 01 00 00 00       	mov    $0x1,%ecx
   140001559:	4c 89 44 24 60       	mov    %r8,0x60(%rsp)
   14000155e:	4c 8d 44 24 58       	lea    0x58(%rsp),%r8
   140001563:	48 89 54 24 58       	mov    %rdx,0x58(%rsp)
   140001568:	4c 89 4c 24 68       	mov    %r9,0x68(%rsp)
   14000156d:	4c 89 44 24 38       	mov    %r8,0x38(%rsp)
   140001572:	4c 89 44 24 28       	mov    %r8,0x28(%rsp)
   140001577:	ff 15 13 6b 00 00    	call   *0x6b13(%rip)        # 140008090 <__imp___acrt_iob_func>
   14000157d:	4c 8b 44 24 28       	mov    0x28(%rsp),%r8
   140001582:	48 8d 15 77 7a 00 00 	lea    0x7a77(%rip),%rdx        # 140009000 <.rdata>
   140001589:	48 89 c1             	mov    %rax,%rcx
   14000158c:	e8 ef 10 00 00       	call   140002680 <__mingw_vfprintf>
   140001591:	48 83 c4 48          	add    $0x48,%rsp
   140001595:	c3                   	ret    
   140001596:	90                   	nop
   140001597:	90                   	nop
   140001598:	90                   	nop
   140001599:	90                   	nop
   14000159a:	90                   	nop
   14000159b:	90                   	nop
   14000159c:	90                   	nop
   14000159d:	90                   	nop
   14000159e:	90                   	nop
   14000159f:	90                   	nop

00000001400015a0 <__do_global_dtors>:
   1400015a0:	48 83 ec 28          	sub    $0x28,%rsp
   1400015a4:	48 8b 05 65 6a 00 00 	mov    0x6a65(%rip),%rax        # 140008010 <p.92992>
   1400015ab:	48 8b 00             	mov    (%rax),%rax
   1400015ae:	48 85 c0             	test   %rax,%rax
   1400015b1:	74 22                	je     1400015d5 <__do_global_dtors+0x35>
   1400015b3:	0f 1f 44 00 00       	nopl   0x0(%rax,%rax,1)
   1400015b8:	ff d0                	call   *%rax
   1400015ba:	48 8b 05 4f 6a 00 00 	mov    0x6a4f(%rip),%rax        # 140008010 <p.92992>
   1400015c1:	48 8d 50 08          	lea    0x8(%rax),%rdx
   1400015c5:	48 8b 40 08          	mov    0x8(%rax),%rax
   1400015c9:	48 89 15 40 6a 00 00 	mov    %rdx,0x6a40(%rip)        # 140008010 <p.92992>
   1400015d0:	48 85 c0             	test   %rax,%rax
   1400015d3:	75 e3                	jne    1400015b8 <__do_global_dtors+0x18>
   1400015d5:	48 83 c4 28          	add    $0x28,%rsp
   1400015d9:	c3                   	ret    
   1400015da:	66 0f 1f 44 00 00    	nopw   0x0(%rax,%rax,1)

00000001400015e0 <__do_global_ctors>:
   1400015e0:	56                   	push   %rsi
   1400015e1:	53                   	push   %rbx
   1400015e2:	48 83 ec 28          	sub    $0x28,%rsp
   1400015e6:	48 8b 15 b3 80 00 00 	mov    0x80b3(%rip),%rdx        # 1400096a0 <.refptr.__CTOR_LIST__>
   1400015ed:	48 8b 02             	mov    (%rdx),%rax
   1400015f0:	89 c1                	mov    %eax,%ecx
   1400015f2:	83 f8 ff             	cmp    $0xffffffff,%eax
   1400015f5:	74 39                	je     140001630 <__do_global_ctors+0x50>
   1400015f7:	85 c9                	test   %ecx,%ecx
   1400015f9:	74 20                	je     14000161b <__do_global_ctors+0x3b>
   1400015fb:	89 c8                	mov    %ecx,%eax
   1400015fd:	83 e9 01             	sub    $0x1,%ecx
   140001600:	48 8d 1c c2          	lea    (%rdx,%rax,8),%rbx
   140001604:	48 29 c8             	sub    %rcx,%rax
   140001607:	48 8d 74 c2 f8       	lea    -0x8(%rdx,%rax,8),%rsi
   14000160c:	0f 1f 40 00          	nopl   0x0(%rax)
   140001610:	ff 13                	call   *(%rbx)
   140001612:	48 83 eb 08          	sub    $0x8,%rbx
   140001616:	48 39 f3             	cmp    %rsi,%rbx
   140001619:	75 f5                	jne    140001610 <__do_global_ctors+0x30>
   14000161b:	48 8d 0d 7e ff ff ff 	lea    -0x82(%rip),%rcx        # 1400015a0 <__do_global_dtors>
   140001622:	48 83 c4 28          	add    $0x28,%rsp
   140001626:	5b                   	pop    %rbx
   140001627:	5e                   	pop    %rsi
   140001628:	e9 e3 fe ff ff       	jmp    140001510 <atexit>
   14000162d:	0f 1f 00             	nopl   (%rax)
   140001630:	31 c0                	xor    %eax,%eax
   140001632:	66 0f 1f 44 00 00    	nopw   0x0(%rax,%rax,1)
   140001638:	44 8d 40 01          	lea    0x1(%rax),%r8d
   14000163c:	89 c1                	mov    %eax,%ecx
   14000163e:	4a 83 3c c2 00       	cmpq   $0x0,(%rdx,%r8,8)
   140001643:	4c 89 c0             	mov    %r8,%rax
   140001646:	75 f0                	jne    140001638 <__do_global_ctors+0x58>
   140001648:	eb ad                	jmp    1400015f7 <__do_global_ctors+0x17>
   14000164a:	66 0f 1f 44 00 00    	nopw   0x0(%rax,%rax,1)

0000000140001650 <__main>:
   140001650:	8b 05 da a9 00 00    	mov    0xa9da(%rip),%eax        # 14000c030 <initialized>
   140001656:	85 c0                	test   %eax,%eax
   140001658:	74 06                	je     140001660 <__main+0x10>
   14000165a:	c3                   	ret    
   14000165b:	0f 1f 44 00 00       	nopl   0x0(%rax,%rax,1)
   140001660:	c7 05 c6 a9 00 00 01 	movl   $0x1,0xa9c6(%rip)        # 14000c030 <initialized>
   140001667:	00 00 00 
   14000166a:	e9 71 ff ff ff       	jmp    1400015e0 <__do_global_ctors>
   14000166f:	90                   	nop

0000000140001670 <my_lconv_init>:
   140001670:	48 ff 25 05 bc 00 00 	rex.W jmp *0xbc05(%rip)        # 14000d27c <__imp___lconv_init>
   140001677:	90                   	nop
   140001678:	90                   	nop
   140001679:	90                   	nop
   14000167a:	90                   	nop
   14000167b:	90                   	nop
   14000167c:	90                   	nop
   14000167d:	90                   	nop
   14000167e:	90                   	nop
   14000167f:	90                   	nop

0000000140001680 <_setargv>:
   140001680:	31 c0                	xor    %eax,%eax
   140001682:	c3                   	ret    
   140001683:	90                   	nop
   140001684:	90                   	nop
   140001685:	90                   	nop
   140001686:	90                   	nop
   140001687:	90                   	nop
   140001688:	90                   	nop
   140001689:	90                   	nop
   14000168a:	90                   	nop
   14000168b:	90                   	nop
   14000168c:	90                   	nop
   14000168d:	90                   	nop
   14000168e:	90                   	nop
   14000168f:	90                   	nop

0000000140001690 <__dyn_tls_dtor>:
   140001690:	48 83 ec 28          	sub    $0x28,%rsp
   140001694:	83 fa 03             	cmp    $0x3,%edx
   140001697:	74 17                	je     1400016b0 <__dyn_tls_dtor+0x20>
   140001699:	85 d2                	test   %edx,%edx
   14000169b:	74 13                	je     1400016b0 <__dyn_tls_dtor+0x20>
   14000169d:	b8 01 00 00 00       	mov    $0x1,%eax
   1400016a2:	48 83 c4 28          	add    $0x28,%rsp
   1400016a6:	c3                   	ret    
   1400016a7:	66 0f 1f 84 00 00 00 	nopw   0x0(%rax,%rax,1)
   1400016ae:	00 00 
   1400016b0:	e8 cb 0a 00 00       	call   140002180 <__mingw_TLScallback>
   1400016b5:	b8 01 00 00 00       	mov    $0x1,%eax
   1400016ba:	48 83 c4 28          	add    $0x28,%rsp
   1400016be:	c3                   	ret    
   1400016bf:	90                   	nop

00000001400016c0 <__dyn_tls_init>:
   1400016c0:	56                   	push   %rsi
   1400016c1:	53                   	push   %rbx
   1400016c2:	48 83 ec 28          	sub    $0x28,%rsp
   1400016c6:	48 8b 05 b3 7f 00 00 	mov    0x7fb3(%rip),%rax        # 140009680 <.refptr._CRT_MT>
   1400016cd:	83 38 02             	cmpl   $0x2,(%rax)
   1400016d0:	74 06                	je     1400016d8 <__dyn_tls_init+0x18>
   1400016d2:	c7 00 02 00 00 00    	movl   $0x2,(%rax)
   1400016d8:	83 fa 02             	cmp    $0x2,%edx
   1400016db:	74 13                	je     1400016f0 <__dyn_tls_init+0x30>
   1400016dd:	83 fa 01             	cmp    $0x1,%edx
   1400016e0:	74 4e                	je     140001730 <__dyn_tls_init+0x70>
   1400016e2:	b8 01 00 00 00       	mov    $0x1,%eax
   1400016e7:	48 83 c4 28          	add    $0x28,%rsp
   1400016eb:	5b                   	pop    %rbx
   1400016ec:	5e                   	pop    %rsi
   1400016ed:	c3                   	ret    
   1400016ee:	66 90                	xchg   %ax,%ax
   1400016f0:	48 8d 1d 69 c9 00 00 	lea    0xc969(%rip),%rbx        # 14000e060 <__xd_z>
   1400016f7:	48 8d 35 62 c9 00 00 	lea    0xc962(%rip),%rsi        # 14000e060 <__xd_z>
   1400016fe:	48 39 de             	cmp    %rbx,%rsi
   140001701:	74 df                	je     1400016e2 <__dyn_tls_init+0x22>
   140001703:	0f 1f 44 00 00       	nopl   0x0(%rax,%rax,1)
   140001708:	48 8b 03             	mov    (%rbx),%rax
   14000170b:	48 85 c0             	test   %rax,%rax
   14000170e:	74 02                	je     140001712 <__dyn_tls_init+0x52>
   140001710:	ff d0                	call   *%rax
   140001712:	48 83 c3 08          	add    $0x8,%rbx
   140001716:	48 39 de             	cmp    %rbx,%rsi
   140001719:	75 ed                	jne    140001708 <__dyn_tls_init+0x48>
   14000171b:	b8 01 00 00 00       	mov    $0x1,%eax
   140001720:	48 83 c4 28          	add    $0x28,%rsp
   140001724:	5b                   	pop    %rbx
   140001725:	5e                   	pop    %rsi
   140001726:	c3                   	ret    
   140001727:	66 0f 1f 84 00 00 00 	nopw   0x0(%rax,%rax,1)
   14000172e:	00 00 
   140001730:	e8 4b 0a 00 00       	call   140002180 <__mingw_TLScallback>
   140001735:	b8 01 00 00 00       	mov    $0x1,%eax
   14000173a:	48 83 c4 28          	add    $0x28,%rsp
   14000173e:	5b                   	pop    %rbx
   14000173f:	5e                   	pop    %rsi
   140001740:	c3                   	ret    
   140001741:	66 66 2e 0f 1f 84 00 	data16 cs nopw 0x0(%rax,%rax,1)
   140001748:	00 00 00 00 
   14000174c:	0f 1f 40 00          	nopl   0x0(%rax)

0000000140001750 <__tlregdtor>:
   140001750:	31 c0                	xor    %eax,%eax
   140001752:	c3                   	ret    
   140001753:	90                   	nop
   140001754:	90                   	nop
   140001755:	90                   	nop
   140001756:	90                   	nop
   140001757:	90                   	nop
   140001758:	90                   	nop
   140001759:	90                   	nop
   14000175a:	90                   	nop
   14000175b:	90                   	nop
   14000175c:	90                   	nop
   14000175d:	90                   	nop
   14000175e:	90                   	nop
   14000175f:	90                   	nop

0000000140001760 <_matherr>:
   140001760:	56                   	push   %rsi
   140001761:	53                   	push   %rbx
   140001762:	48 83 ec 78          	sub    $0x78,%rsp
   140001766:	0f 11 74 24 40       	movups %xmm6,0x40(%rsp)
   14000176b:	0f 11 7c 24 50       	movups %xmm7,0x50(%rsp)
   140001770:	44 0f 11 44 24 60    	movups %xmm8,0x60(%rsp)
   140001776:	83 39 06             	cmpl   $0x6,(%rcx)
   140001779:	0f 87 cd 00 00 00    	ja     14000184c <_matherr+0xec>
   14000177f:	8b 01                	mov    (%rcx),%eax
   140001781:	48 8d 15 1c 7a 00 00 	lea    0x7a1c(%rip),%rdx        # 1400091a4 <.rdata+0x124>
   140001788:	48 63 04 82          	movslq (%rdx,%rax,4),%rax
   14000178c:	48 01 d0             	add    %rdx,%rax
   14000178f:	ff e0                	jmp    *%rax
   140001791:	0f 1f 80 00 00 00 00 	nopl   0x0(%rax)
   140001798:	48 8d 1d b7 79 00 00 	lea    0x79b7(%rip),%rbx        # 140009156 <.rdata+0xd6>
   14000179f:	f2 44 0f 10 41 20    	movsd  0x20(%rcx),%xmm8
   1400017a5:	f2 0f 10 79 18       	movsd  0x18(%rcx),%xmm7
   1400017aa:	f2 0f 10 71 10       	movsd  0x10(%rcx),%xmm6
   1400017af:	48 8b 71 08          	mov    0x8(%rcx),%rsi
   1400017b3:	b9 02 00 00 00       	mov    $0x2,%ecx
   1400017b8:	e8 33 60 00 00       	call   1400077f0 <__acrt_iob_func>
   1400017bd:	f2 44 0f 11 44 24 30 	movsd  %xmm8,0x30(%rsp)
   1400017c4:	49 89 d8             	mov    %rbx,%r8
   1400017c7:	48 8d 15 aa 79 00 00 	lea    0x79aa(%rip),%rdx        # 140009178 <.rdata+0xf8>
   1400017ce:	f2 0f 11 7c 24 28    	movsd  %xmm7,0x28(%rsp)
   1400017d4:	48 89 c1             	mov    %rax,%rcx
   1400017d7:	49 89 f1             	mov    %rsi,%r9
   1400017da:	f2 0f 11 74 24 20    	movsd  %xmm6,0x20(%rsp)
   1400017e0:	e8 5b 5a 00 00       	call   140007240 <fprintf>
   1400017e5:	90                   	nop
   1400017e6:	0f 10 74 24 40       	movups 0x40(%rsp),%xmm6
   1400017eb:	0f 10 7c 24 50       	movups 0x50(%rsp),%xmm7
   1400017f0:	31 c0                	xor    %eax,%eax
   1400017f2:	44 0f 10 44 24 60    	movups 0x60(%rsp),%xmm8
   1400017f8:	48 83 c4 78          	add    $0x78,%rsp
   1400017fc:	5b                   	pop    %rbx
   1400017fd:	5e                   	pop    %rsi
   1400017fe:	c3                   	ret    
   1400017ff:	90                   	nop
   140001800:	48 8d 1d 89 78 00 00 	lea    0x7889(%rip),%rbx        # 140009090 <.rdata+0x10>
   140001807:	eb 96                	jmp    14000179f <_matherr+0x3f>
   140001809:	0f 1f 80 00 00 00 00 	nopl   0x0(%rax)
   140001810:	48 8d 1d b9 78 00 00 	lea    0x78b9(%rip),%rbx        # 1400090d0 <.rdata+0x50>
   140001817:	eb 86                	jmp    14000179f <_matherr+0x3f>
   140001819:	0f 1f 80 00 00 00 00 	nopl   0x0(%rax)
   140001820:	48 8d 1d 89 78 00 00 	lea    0x7889(%rip),%rbx        # 1400090b0 <.rdata+0x30>
   140001827:	e9 73 ff ff ff       	jmp    14000179f <_matherr+0x3f>
   14000182c:	0f 1f 40 00          	nopl   0x0(%rax)
   140001830:	48 8d 1d e9 78 00 00 	lea    0x78e9(%rip),%rbx        # 140009120 <.rdata+0xa0>
   140001837:	e9 63 ff ff ff       	jmp    14000179f <_matherr+0x3f>
   14000183c:	0f 1f 40 00          	nopl   0x0(%rax)
   140001840:	48 8d 1d b1 78 00 00 	lea    0x78b1(%rip),%rbx        # 1400090f8 <.rdata+0x78>
   140001847:	e9 53 ff ff ff       	jmp    14000179f <_matherr+0x3f>
   14000184c:	48 8d 1d 2d 78 00 00 	lea    0x782d(%rip),%rbx        # 140009080 <.rdata>
   140001853:	e9 47 ff ff ff       	jmp    14000179f <_matherr+0x3f>
   140001858:	90                   	nop
   140001859:	90                   	nop
   14000185a:	90                   	nop
   14000185b:	90                   	nop
   14000185c:	90                   	nop
   14000185d:	90                   	nop
   14000185e:	90                   	nop
   14000185f:	90                   	nop

0000000140001860 <_fpreset>:
   140001860:	db e3                	fninit 
   140001862:	c3                   	ret    
   140001863:	90                   	nop
   140001864:	90                   	nop
   140001865:	90                   	nop
   140001866:	90                   	nop
   140001867:	90                   	nop
   140001868:	90                   	nop
   140001869:	90                   	nop
   14000186a:	90                   	nop
   14000186b:	90                   	nop
   14000186c:	90                   	nop
   14000186d:	90                   	nop
   14000186e:	90                   	nop
   14000186f:	90                   	nop

0000000140001870 <__report_error>:
   140001870:	41 54                	push   %r12
   140001872:	53                   	push   %rbx
   140001873:	48 83 ec 38          	sub    $0x38,%rsp
   140001877:	49 89 cc             	mov    %rcx,%r12
   14000187a:	48 8d 44 24 58       	lea    0x58(%rsp),%rax
   14000187f:	b9 02 00 00 00       	mov    $0x2,%ecx
   140001884:	48 89 54 24 58       	mov    %rdx,0x58(%rsp)
   140001889:	4c 89 44 24 60       	mov    %r8,0x60(%rsp)
   14000188e:	4c 89 4c 24 68       	mov    %r9,0x68(%rsp)
   140001893:	48 89 44 24 28       	mov    %rax,0x28(%rsp)
   140001898:	e8 53 5f 00 00       	call   1400077f0 <__acrt_iob_func>
   14000189d:	41 b8 1b 00 00 00    	mov    $0x1b,%r8d
   1400018a3:	ba 01 00 00 00       	mov    $0x1,%edx
   1400018a8:	48 8d 0d 11 79 00 00 	lea    0x7911(%rip),%rcx        # 1400091c0 <.rdata>
   1400018af:	49 89 c1             	mov    %rax,%r9
   1400018b2:	e8 71 59 00 00       	call   140007228 <fwrite>
   1400018b7:	48 8b 5c 24 28       	mov    0x28(%rsp),%rbx
   1400018bc:	b9 02 00 00 00       	mov    $0x2,%ecx
   1400018c1:	e8 2a 5f 00 00       	call   1400077f0 <__acrt_iob_func>
   1400018c6:	4c 89 e2             	mov    %r12,%rdx
   1400018c9:	48 89 c1             	mov    %rax,%rcx
   1400018cc:	49 89 d8             	mov    %rbx,%r8
   1400018cf:	e8 14 59 00 00       	call   1400071e8 <vfprintf>
   1400018d4:	e8 7f 59 00 00       	call   140007258 <abort>
   1400018d9:	90                   	nop
   1400018da:	66 0f 1f 44 00 00    	nopw   0x0(%rax,%rax,1)

00000001400018e0 <__write_memory.part.0>:
   1400018e0:	41 54                	push   %r12
   1400018e2:	55                   	push   %rbp
   1400018e3:	57                   	push   %rdi
   1400018e4:	56                   	push   %rsi
   1400018e5:	53                   	push   %rbx
   1400018e6:	48 83 ec 50          	sub    $0x50,%rsp
   1400018ea:	48 63 3d b3 a7 00 00 	movslq 0xa7b3(%rip),%rdi        # 14000c0a4 <maxSections>
   1400018f1:	49 89 cc             	mov    %rcx,%r12
   1400018f4:	48 89 d6             	mov    %rdx,%rsi
   1400018f7:	4c 89 c3             	mov    %r8,%rbx
   1400018fa:	85 ff                	test   %edi,%edi
   1400018fc:	0f 8e 8e 01 00 00    	jle    140001a90 <__write_memory.part.0+0x1b0>
   140001902:	48 8b 05 9f a7 00 00 	mov    0xa79f(%rip),%rax        # 14000c0a8 <the_secs>
   140001909:	31 c9                	xor    %ecx,%ecx
   14000190b:	48 83 c0 18          	add    $0x18,%rax
   14000190f:	90                   	nop
   140001910:	48 8b 10             	mov    (%rax),%rdx
   140001913:	49 39 d4             	cmp    %rdx,%r12
   140001916:	72 14                	jb     14000192c <__write_memory.part.0+0x4c>
   140001918:	4c 8b 40 08          	mov    0x8(%rax),%r8
   14000191c:	45 8b 40 08          	mov    0x8(%r8),%r8d
   140001920:	4c 01 c2             	add    %r8,%rdx
   140001923:	49 39 d4             	cmp    %rdx,%r12
   140001926:	0f 82 8b 00 00 00    	jb     1400019b7 <__write_memory.part.0+0xd7>
   14000192c:	83 c1 01             	add    $0x1,%ecx
   14000192f:	48 83 c0 28          	add    $0x28,%rax
   140001933:	39 f9                	cmp    %edi,%ecx
   140001935:	75 d9                	jne    140001910 <__write_memory.part.0+0x30>
   140001937:	4c 89 e1             	mov    %r12,%rcx
   14000193a:	e8 51 0a 00 00       	call   140002390 <__mingw_GetSectionForAddress>
   14000193f:	48 89 c5             	mov    %rax,%rbp
   140001942:	48 85 c0             	test   %rax,%rax
   140001945:	0f 84 a2 01 00 00    	je     140001aed <__write_memory.part.0+0x20d>
   14000194b:	48 8b 05 56 a7 00 00 	mov    0xa756(%rip),%rax        # 14000c0a8 <the_secs>
   140001952:	48 8d 3c bf          	lea    (%rdi,%rdi,4),%rdi
   140001956:	48 c1 e7 03          	shl    $0x3,%rdi
   14000195a:	48 01 f8             	add    %rdi,%rax
   14000195d:	48 89 68 20          	mov    %rbp,0x20(%rax)
   140001961:	c7 00 00 00 00 00    	movl   $0x0,(%rax)
   140001967:	e8 54 0b 00 00       	call   1400024c0 <_GetPEImageBase>
   14000196c:	8b 4d 0c             	mov    0xc(%rbp),%ecx
   14000196f:	48 8d 54 24 20       	lea    0x20(%rsp),%rdx
   140001974:	41 b8 30 00 00 00    	mov    $0x30,%r8d
   14000197a:	48 01 c1             	add    %rax,%rcx
   14000197d:	48 8b 05 24 a7 00 00 	mov    0xa724(%rip),%rax        # 14000c0a8 <the_secs>
   140001984:	48 89 4c 38 18       	mov    %rcx,0x18(%rax,%rdi,1)
   140001989:	ff 15 a5 b8 00 00    	call   *0xb8a5(%rip)        # 14000d234 <__imp_VirtualQuery>
   14000198f:	48 85 c0             	test   %rax,%rax
   140001992:	0f 84 3a 01 00 00    	je     140001ad2 <__write_memory.part.0+0x1f2>
   140001998:	8b 44 24 44          	mov    0x44(%rsp),%eax
   14000199c:	8d 50 c0             	lea    -0x40(%rax),%edx
   14000199f:	83 e2 bf             	and    $0xffffffbf,%edx
   1400019a2:	74 0c                	je     1400019b0 <__write_memory.part.0+0xd0>
   1400019a4:	8d 50 fc             	lea    -0x4(%rax),%edx
   1400019a7:	83 e2 fb             	and    $0xfffffffb,%edx
   1400019aa:	0f 85 90 00 00 00    	jne    140001a40 <__write_memory.part.0+0x160>
   1400019b0:	83 05 ed a6 00 00 01 	addl   $0x1,0xa6ed(%rip)        # 14000c0a4 <maxSections>
   1400019b7:	83 fb 08             	cmp    $0x8,%ebx
   1400019ba:	73 2c                	jae    1400019e8 <__write_memory.part.0+0x108>
   1400019bc:	f6 c3 04             	test   $0x4,%bl
   1400019bf:	0f 85 db 00 00 00    	jne    140001aa0 <__write_memory.part.0+0x1c0>
   1400019c5:	85 db                	test   %ebx,%ebx
   1400019c7:	74 10                	je     1400019d9 <__write_memory.part.0+0xf9>
   1400019c9:	0f b6 06             	movzbl (%rsi),%eax
   1400019cc:	41 88 04 24          	mov    %al,(%r12)
   1400019d0:	f6 c3 02             	test   $0x2,%bl
   1400019d3:	0f 85 e7 00 00 00    	jne    140001ac0 <__write_memory.part.0+0x1e0>
   1400019d9:	48 83 c4 50          	add    $0x50,%rsp
   1400019dd:	5b                   	pop    %rbx
   1400019de:	5e                   	pop    %rsi
   1400019df:	5f                   	pop    %rdi
   1400019e0:	5d                   	pop    %rbp
   1400019e1:	41 5c                	pop    %r12
   1400019e3:	c3                   	ret    
   1400019e4:	0f 1f 40 00          	nopl   0x0(%rax)
   1400019e8:	48 8b 06             	mov    (%rsi),%rax
   1400019eb:	49 8d 4c 24 08       	lea    0x8(%r12),%rcx
   1400019f0:	48 83 e1 f8          	and    $0xfffffffffffffff8,%rcx
   1400019f4:	49 89 04 24          	mov    %rax,(%r12)
   1400019f8:	89 d8                	mov    %ebx,%eax
   1400019fa:	48 8b 54 06 f8       	mov    -0x8(%rsi,%rax,1),%rdx
   1400019ff:	49 89 54 04 f8       	mov    %rdx,-0x8(%r12,%rax,1)
   140001a04:	49 29 cc             	sub    %rcx,%r12
   140001a07:	44 01 e3             	add    %r12d,%ebx
   140001a0a:	4c 29 e6             	sub    %r12,%rsi
   140001a0d:	83 e3 f8             	and    $0xfffffff8,%ebx
   140001a10:	83 fb 08             	cmp    $0x8,%ebx
   140001a13:	72 c4                	jb     1400019d9 <__write_memory.part.0+0xf9>
   140001a15:	83 e3 f8             	and    $0xfffffff8,%ebx
   140001a18:	31 c0                	xor    %eax,%eax
   140001a1a:	89 c2                	mov    %eax,%edx
   140001a1c:	83 c0 08             	add    $0x8,%eax
   140001a1f:	4c 8b 04 16          	mov    (%rsi,%rdx,1),%r8
   140001a23:	4c 89 04 11          	mov    %r8,(%rcx,%rdx,1)
   140001a27:	39 d8                	cmp    %ebx,%eax
   140001a29:	72 ef                	jb     140001a1a <__write_memory.part.0+0x13a>
   140001a2b:	48 83 c4 50          	add    $0x50,%rsp
   140001a2f:	5b                   	pop    %rbx
   140001a30:	5e                   	pop    %rsi
   140001a31:	5f                   	pop    %rdi
   140001a32:	5d                   	pop    %rbp
   140001a33:	41 5c                	pop    %r12
   140001a35:	c3                   	ret    
   140001a36:	66 2e 0f 1f 84 00 00 	cs nopw 0x0(%rax,%rax,1)
   140001a3d:	00 00 00 
   140001a40:	83 f8 02             	cmp    $0x2,%eax
   140001a43:	48 8b 4c 24 20       	mov    0x20(%rsp),%rcx
   140001a48:	48 8b 54 24 38       	mov    0x38(%rsp),%rdx
   140001a4d:	41 b8 04 00 00 00    	mov    $0x4,%r8d
   140001a53:	b8 40 00 00 00       	mov    $0x40,%eax
   140001a58:	44 0f 45 c0          	cmovne %eax,%r8d
   140001a5c:	48 03 3d 45 a6 00 00 	add    0xa645(%rip),%rdi        # 14000c0a8 <the_secs>
   140001a63:	48 89 4f 08          	mov    %rcx,0x8(%rdi)
   140001a67:	49 89 f9             	mov    %rdi,%r9
   140001a6a:	48 89 57 10          	mov    %rdx,0x10(%rdi)
   140001a6e:	ff 15 b8 b7 00 00    	call   *0xb7b8(%rip)        # 14000d22c <__imp_VirtualProtect>
   140001a74:	85 c0                	test   %eax,%eax
   140001a76:	0f 85 34 ff ff ff    	jne    1400019b0 <__write_memory.part.0+0xd0>
   140001a7c:	ff 15 62 b7 00 00    	call   *0xb762(%rip)        # 14000d1e4 <__imp_GetLastError>
   140001a82:	48 8d 0d af 77 00 00 	lea    0x77af(%rip),%rcx        # 140009238 <.rdata+0x78>
   140001a89:	89 c2                	mov    %eax,%edx
   140001a8b:	e8 e0 fd ff ff       	call   140001870 <__report_error>
   140001a90:	31 ff                	xor    %edi,%edi
   140001a92:	e9 a0 fe ff ff       	jmp    140001937 <__write_memory.part.0+0x57>
   140001a97:	66 0f 1f 84 00 00 00 	nopw   0x0(%rax,%rax,1)
   140001a9e:	00 00 
   140001aa0:	8b 06                	mov    (%rsi),%eax
   140001aa2:	89 db                	mov    %ebx,%ebx
   140001aa4:	41 89 04 24          	mov    %eax,(%r12)
   140001aa8:	8b 44 1e fc          	mov    -0x4(%rsi,%rbx,1),%eax
   140001aac:	41 89 44 1c fc       	mov    %eax,-0x4(%r12,%rbx,1)
   140001ab1:	e9 23 ff ff ff       	jmp    1400019d9 <__write_memory.part.0+0xf9>
   140001ab6:	66 2e 0f 1f 84 00 00 	cs nopw 0x0(%rax,%rax,1)
   140001abd:	00 00 00 
   140001ac0:	89 db                	mov    %ebx,%ebx
   140001ac2:	0f b7 44 1e fe       	movzwl -0x2(%rsi,%rbx,1),%eax
   140001ac7:	66 41 89 44 1c fe    	mov    %ax,-0x2(%r12,%rbx,1)
   140001acd:	e9 07 ff ff ff       	jmp    1400019d9 <__write_memory.part.0+0xf9>
   140001ad2:	48 8b 05 cf a5 00 00 	mov    0xa5cf(%rip),%rax        # 14000c0a8 <the_secs>
   140001ad9:	8b 55 08             	mov    0x8(%rbp),%edx
   140001adc:	48 8d 0d 1d 77 00 00 	lea    0x771d(%rip),%rcx        # 140009200 <.rdata+0x40>
   140001ae3:	4c 8b 44 38 18       	mov    0x18(%rax,%rdi,1),%r8
   140001ae8:	e8 83 fd ff ff       	call   140001870 <__report_error>
   140001aed:	4c 89 e2             	mov    %r12,%rdx
   140001af0:	48 8d 0d e9 76 00 00 	lea    0x76e9(%rip),%rcx        # 1400091e0 <.rdata+0x20>
   140001af7:	e8 74 fd ff ff       	call   140001870 <__report_error>
   140001afc:	90                   	nop
   140001afd:	0f 1f 00             	nopl   (%rax)

0000000140001b00 <_pei386_runtime_relocator>:
   140001b00:	55                   	push   %rbp
   140001b01:	41 57                	push   %r15
   140001b03:	41 56                	push   %r14
   140001b05:	41 55                	push   %r13
   140001b07:	41 54                	push   %r12
   140001b09:	57                   	push   %rdi
   140001b0a:	56                   	push   %rsi
   140001b0b:	53                   	push   %rbx
   140001b0c:	48 83 ec 38          	sub    $0x38,%rsp
   140001b10:	48 8d ac 24 80 00 00 	lea    0x80(%rsp),%rbp
   140001b17:	00 
   140001b18:	8b 35 82 a5 00 00    	mov    0xa582(%rip),%esi        # 14000c0a0 <was_init.94382>
   140001b1e:	85 f6                	test   %esi,%esi
   140001b20:	74 16                	je     140001b38 <_pei386_runtime_relocator+0x38>
   140001b22:	48 8d 65 b8          	lea    -0x48(%rbp),%rsp
   140001b26:	5b                   	pop    %rbx
   140001b27:	5e                   	pop    %rsi
   140001b28:	5f                   	pop    %rdi
   140001b29:	41 5c                	pop    %r12
   140001b2b:	41 5d                	pop    %r13
   140001b2d:	41 5e                	pop    %r14
   140001b2f:	41 5f                	pop    %r15
   140001b31:	5d                   	pop    %rbp
   140001b32:	c3                   	ret    
   140001b33:	0f 1f 44 00 00       	nopl   0x0(%rax,%rax,1)
   140001b38:	c7 05 5e a5 00 00 01 	movl   $0x1,0xa55e(%rip)        # 14000c0a0 <was_init.94382>
   140001b3f:	00 00 00 
   140001b42:	e8 d9 08 00 00       	call   140002420 <__mingw_GetSectionCount>
   140001b47:	48 98                	cltq   
   140001b49:	48 8d 04 80          	lea    (%rax,%rax,4),%rax
   140001b4d:	48 8d 04 c5 0f 00 00 	lea    0xf(,%rax,8),%rax
   140001b54:	00 
   140001b55:	48 83 e0 f0          	and    $0xfffffffffffffff0,%rax
   140001b59:	e8 e2 0a 00 00       	call   140002640 <___chkstk_ms>
   140001b5e:	4c 8b 25 4b 7b 00 00 	mov    0x7b4b(%rip),%r12        # 1400096b0 <.refptr.__RUNTIME_PSEUDO_RELOC_LIST_END__>
   140001b65:	48 8b 1d 54 7b 00 00 	mov    0x7b54(%rip),%rbx        # 1400096c0 <.refptr.__RUNTIME_PSEUDO_RELOC_LIST__>
   140001b6c:	c7 05 2e a5 00 00 00 	movl   $0x0,0xa52e(%rip)        # 14000c0a4 <maxSections>
   140001b73:	00 00 00 
   140001b76:	48 29 c4             	sub    %rax,%rsp
   140001b79:	48 8d 44 24 20       	lea    0x20(%rsp),%rax
   140001b7e:	48 89 05 23 a5 00 00 	mov    %rax,0xa523(%rip)        # 14000c0a8 <the_secs>
   140001b85:	4c 89 e0             	mov    %r12,%rax
   140001b88:	48 29 d8             	sub    %rbx,%rax
   140001b8b:	48 83 f8 07          	cmp    $0x7,%rax
   140001b8f:	7e 91                	jle    140001b22 <_pei386_runtime_relocator+0x22>
   140001b91:	8b 13                	mov    (%rbx),%edx
   140001b93:	48 83 f8 0b          	cmp    $0xb,%rax
   140001b97:	0f 8f 4b 01 00 00    	jg     140001ce8 <_pei386_runtime_relocator+0x1e8>
   140001b9d:	85 d2                	test   %edx,%edx
   140001b9f:	0f 85 cb 01 00 00    	jne    140001d70 <_pei386_runtime_relocator+0x270>
   140001ba5:	8b 43 04             	mov    0x4(%rbx),%eax
   140001ba8:	85 c0                	test   %eax,%eax
   140001baa:	0f 85 c0 01 00 00    	jne    140001d70 <_pei386_runtime_relocator+0x270>
   140001bb0:	8b 53 08             	mov    0x8(%rbx),%edx
   140001bb3:	83 fa 01             	cmp    $0x1,%edx
   140001bb6:	0f 85 1c 02 00 00    	jne    140001dd8 <_pei386_runtime_relocator+0x2d8>
   140001bbc:	48 83 c3 0c          	add    $0xc,%rbx
   140001bc0:	4c 8d 7d a8          	lea    -0x58(%rbp),%r15
   140001bc4:	4c 8b 2d 15 7b 00 00 	mov    0x7b15(%rip),%r13        # 1400096e0 <.refptr.__image_base__>
   140001bcb:	49 be 00 00 00 00 ff 	movabs $0xffffffff00000000,%r14
   140001bd2:	ff ff ff 
   140001bd5:	4c 39 e3             	cmp    %r12,%rbx
   140001bd8:	72 3f                	jb     140001c19 <_pei386_runtime_relocator+0x119>
   140001bda:	e9 43 ff ff ff       	jmp    140001b22 <_pei386_runtime_relocator+0x22>
   140001bdf:	90                   	nop
   140001be0:	44 0f b6 01          	movzbl (%rcx),%r8d
   140001be4:	4c 89 ff             	mov    %r15,%rdi
   140001be7:	4d 89 c2             	mov    %r8,%r10
   140001bea:	49 81 ca 00 ff ff ff 	or     $0xffffffffffffff00,%r10
   140001bf1:	45 84 c0             	test   %r8b,%r8b
   140001bf4:	4d 0f 48 c2          	cmovs  %r10,%r8
   140001bf8:	49 29 d0             	sub    %rdx,%r8
   140001bfb:	4c 89 fa             	mov    %r15,%rdx
   140001bfe:	4d 01 c8             	add    %r9,%r8
   140001c01:	4c 89 45 a8          	mov    %r8,-0x58(%rbp)
   140001c05:	41 b8 01 00 00 00    	mov    $0x1,%r8d
   140001c0b:	e8 d0 fc ff ff       	call   1400018e0 <__write_memory.part.0>
   140001c10:	48 83 c3 0c          	add    $0xc,%rbx
   140001c14:	4c 39 e3             	cmp    %r12,%rbx
   140001c17:	73 77                	jae    140001c90 <_pei386_runtime_relocator+0x190>
   140001c19:	8b 13                	mov    (%rbx),%edx
   140001c1b:	8b 4b 04             	mov    0x4(%rbx),%ecx
   140001c1e:	44 0f b6 43 08       	movzbl 0x8(%rbx),%r8d
   140001c23:	4c 01 ea             	add    %r13,%rdx
   140001c26:	4c 01 e9             	add    %r13,%rcx
   140001c29:	4c 8b 0a             	mov    (%rdx),%r9
   140001c2c:	41 83 f8 20          	cmp    $0x20,%r8d
   140001c30:	0f 84 0a 01 00 00    	je     140001d40 <_pei386_runtime_relocator+0x240>
   140001c36:	0f 87 d4 00 00 00    	ja     140001d10 <_pei386_runtime_relocator+0x210>
   140001c3c:	41 83 f8 08          	cmp    $0x8,%r8d
   140001c40:	74 9e                	je     140001be0 <_pei386_runtime_relocator+0xe0>
   140001c42:	41 83 f8 10          	cmp    $0x10,%r8d
   140001c46:	0f 85 75 01 00 00    	jne    140001dc1 <_pei386_runtime_relocator+0x2c1>
   140001c4c:	44 0f b7 01          	movzwl (%rcx),%r8d
   140001c50:	4c 89 ff             	mov    %r15,%rdi
   140001c53:	4d 89 c2             	mov    %r8,%r10
   140001c56:	49 81 ca 00 00 ff ff 	or     $0xffffffffffff0000,%r10
   140001c5d:	66 45 85 c0          	test   %r8w,%r8w
   140001c61:	4d 0f 48 c2          	cmovs  %r10,%r8
   140001c65:	48 83 c3 0c          	add    $0xc,%rbx
   140001c69:	49 29 d0             	sub    %rdx,%r8
   140001c6c:	4c 89 fa             	mov    %r15,%rdx
   140001c6f:	4d 01 c8             	add    %r9,%r8
   140001c72:	4c 89 45 a8          	mov    %r8,-0x58(%rbp)
   140001c76:	41 b8 02 00 00 00    	mov    $0x2,%r8d
   140001c7c:	e8 5f fc ff ff       	call   1400018e0 <__write_memory.part.0>
   140001c81:	4c 39 e3             	cmp    %r12,%rbx
   140001c84:	72 93                	jb     140001c19 <_pei386_runtime_relocator+0x119>
   140001c86:	66 2e 0f 1f 84 00 00 	cs nopw 0x0(%rax,%rax,1)
   140001c8d:	00 00 00 
   140001c90:	8b 05 0e a4 00 00    	mov    0xa40e(%rip),%eax        # 14000c0a4 <maxSections>
   140001c96:	85 c0                	test   %eax,%eax
   140001c98:	0f 8e 84 fe ff ff    	jle    140001b22 <_pei386_runtime_relocator+0x22>
   140001c9e:	4c 8b 25 87 b5 00 00 	mov    0xb587(%rip),%r12        # 14000d22c <__imp_VirtualProtect>
   140001ca5:	31 db                	xor    %ebx,%ebx
   140001ca7:	66 0f 1f 84 00 00 00 	nopw   0x0(%rax,%rax,1)
   140001cae:	00 00 
   140001cb0:	48 8b 05 f1 a3 00 00 	mov    0xa3f1(%rip),%rax        # 14000c0a8 <the_secs>
   140001cb7:	48 01 d8             	add    %rbx,%rax
   140001cba:	44 8b 00             	mov    (%rax),%r8d
   140001cbd:	45 85 c0             	test   %r8d,%r8d
   140001cc0:	74 0e                	je     140001cd0 <_pei386_runtime_relocator+0x1d0>
   140001cc2:	48 8b 50 10          	mov    0x10(%rax),%rdx
   140001cc6:	48 8b 48 08          	mov    0x8(%rax),%rcx
   140001cca:	49 89 f9             	mov    %rdi,%r9
   140001ccd:	41 ff d4             	call   *%r12
   140001cd0:	83 c6 01             	add    $0x1,%esi
   140001cd3:	48 83 c3 28          	add    $0x28,%rbx
   140001cd7:	3b 35 c7 a3 00 00    	cmp    0xa3c7(%rip),%esi        # 14000c0a4 <maxSections>
   140001cdd:	7c d1                	jl     140001cb0 <_pei386_runtime_relocator+0x1b0>
   140001cdf:	e9 3e fe ff ff       	jmp    140001b22 <_pei386_runtime_relocator+0x22>
   140001ce4:	0f 1f 40 00          	nopl   0x0(%rax)
   140001ce8:	85 d2                	test   %edx,%edx
   140001cea:	0f 85 80 00 00 00    	jne    140001d70 <_pei386_runtime_relocator+0x270>
   140001cf0:	8b 43 04             	mov    0x4(%rbx),%eax
   140001cf3:	89 c7                	mov    %eax,%edi
   140001cf5:	0b 7b 08             	or     0x8(%rbx),%edi
   140001cf8:	0f 85 aa fe ff ff    	jne    140001ba8 <_pei386_runtime_relocator+0xa8>
   140001cfe:	8b 53 0c             	mov    0xc(%rbx),%edx
   140001d01:	48 83 c3 0c          	add    $0xc,%rbx
   140001d05:	e9 93 fe ff ff       	jmp    140001b9d <_pei386_runtime_relocator+0x9d>
   140001d0a:	66 0f 1f 44 00 00    	nopw   0x0(%rax,%rax,1)
   140001d10:	41 83 f8 40          	cmp    $0x40,%r8d
   140001d14:	0f 85 a7 00 00 00    	jne    140001dc1 <_pei386_runtime_relocator+0x2c1>
   140001d1a:	48 8b 01             	mov    (%rcx),%rax
   140001d1d:	41 b8 08 00 00 00    	mov    $0x8,%r8d
   140001d23:	4c 89 ff             	mov    %r15,%rdi
   140001d26:	48 29 d0             	sub    %rdx,%rax
   140001d29:	4c 89 fa             	mov    %r15,%rdx
   140001d2c:	4c 01 c8             	add    %r9,%rax
   140001d2f:	48 89 45 a8          	mov    %rax,-0x58(%rbp)
   140001d33:	e8 a8 fb ff ff       	call   1400018e0 <__write_memory.part.0>
   140001d38:	e9 d3 fe ff ff       	jmp    140001c10 <_pei386_runtime_relocator+0x110>
   140001d3d:	0f 1f 00             	nopl   (%rax)
   140001d40:	8b 01                	mov    (%rcx),%eax
   140001d42:	4c 89 ff             	mov    %r15,%rdi
   140001d45:	49 89 c0             	mov    %rax,%r8
   140001d48:	4c 09 f0             	or     %r14,%rax
   140001d4b:	45 85 c0             	test   %r8d,%r8d
   140001d4e:	49 0f 49 c0          	cmovns %r8,%rax
   140001d52:	41 b8 04 00 00 00    	mov    $0x4,%r8d
   140001d58:	48 29 d0             	sub    %rdx,%rax
   140001d5b:	4c 89 fa             	mov    %r15,%rdx
   140001d5e:	4c 01 c8             	add    %r9,%rax
   140001d61:	48 89 45 a8          	mov    %rax,-0x58(%rbp)
   140001d65:	e8 76 fb ff ff       	call   1400018e0 <__write_memory.part.0>
   140001d6a:	e9 a1 fe ff ff       	jmp    140001c10 <_pei386_runtime_relocator+0x110>
   140001d6f:	90                   	nop
   140001d70:	4c 39 e3             	cmp    %r12,%rbx
   140001d73:	0f 83 a9 fd ff ff    	jae    140001b22 <_pei386_runtime_relocator+0x22>
   140001d79:	49 83 ec 01          	sub    $0x1,%r12
   140001d7d:	4c 8b 2d 5c 79 00 00 	mov    0x795c(%rip),%r13        # 1400096e0 <.refptr.__image_base__>
   140001d84:	48 8d 7d a8          	lea    -0x58(%rbp),%rdi
   140001d88:	49 29 dc             	sub    %rbx,%r12
   140001d8b:	49 c1 ec 03          	shr    $0x3,%r12
   140001d8f:	4e 8d 64 e3 08       	lea    0x8(%rbx,%r12,8),%r12
   140001d94:	0f 1f 40 00          	nopl   0x0(%rax)
   140001d98:	8b 4b 04             	mov    0x4(%rbx),%ecx
   140001d9b:	8b 03                	mov    (%rbx),%eax
   140001d9d:	41 b8 04 00 00 00    	mov    $0x4,%r8d
   140001da3:	48 89 fa             	mov    %rdi,%rdx
   140001da6:	48 83 c3 08          	add    $0x8,%rbx
   140001daa:	4c 01 e9             	add    %r13,%rcx
   140001dad:	03 01                	add    (%rcx),%eax
   140001daf:	89 45 a8             	mov    %eax,-0x58(%rbp)
   140001db2:	e8 29 fb ff ff       	call   1400018e0 <__write_memory.part.0>
   140001db7:	4c 39 e3             	cmp    %r12,%rbx
   140001dba:	75 dc                	jne    140001d98 <_pei386_runtime_relocator+0x298>
   140001dbc:	e9 cf fe ff ff       	jmp    140001c90 <_pei386_runtime_relocator+0x190>
   140001dc1:	44 89 c2             	mov    %r8d,%edx
   140001dc4:	48 8d 0d cd 74 00 00 	lea    0x74cd(%rip),%rcx        # 140009298 <.rdata+0xd8>
   140001dcb:	48 c7 45 a8 00 00 00 	movq   $0x0,-0x58(%rbp)
   140001dd2:	00 
   140001dd3:	e8 98 fa ff ff       	call   140001870 <__report_error>
   140001dd8:	48 8d 0d 81 74 00 00 	lea    0x7481(%rip),%rcx        # 140009260 <.rdata+0xa0>
   140001ddf:	e8 8c fa ff ff       	call   140001870 <__report_error>
   140001de4:	90                   	nop
   140001de5:	90                   	nop
   140001de6:	90                   	nop
   140001de7:	90                   	nop
   140001de8:	90                   	nop
   140001de9:	90                   	nop
   140001dea:	90                   	nop
   140001deb:	90                   	nop
   140001dec:	90                   	nop
   140001ded:	90                   	nop
   140001dee:	90                   	nop
   140001def:	90                   	nop

0000000140001df0 <__mingw_raise_matherr>:
   140001df0:	48 83 ec 58          	sub    $0x58,%rsp
   140001df4:	48 8b 05 b5 a2 00 00 	mov    0xa2b5(%rip),%rax        # 14000c0b0 <stUserMathErr>
   140001dfb:	48 85 c0             	test   %rax,%rax
   140001dfe:	74 2c                	je     140001e2c <__mingw_raise_matherr+0x3c>
   140001e00:	f2 0f 10 84 24 80 00 	movsd  0x80(%rsp),%xmm0
   140001e07:	00 00 
   140001e09:	89 4c 24 20          	mov    %ecx,0x20(%rsp)
   140001e0d:	48 8d 4c 24 20       	lea    0x20(%rsp),%rcx
   140001e12:	48 89 54 24 28       	mov    %rdx,0x28(%rsp)
   140001e17:	f2 0f 11 54 24 30    	movsd  %xmm2,0x30(%rsp)
   140001e1d:	f2 0f 11 5c 24 38    	movsd  %xmm3,0x38(%rsp)
   140001e23:	f2 0f 11 44 24 40    	movsd  %xmm0,0x40(%rsp)
   140001e29:	ff d0                	call   *%rax
   140001e2b:	90                   	nop
   140001e2c:	48 83 c4 58          	add    $0x58,%rsp
   140001e30:	c3                   	ret    
   140001e31:	66 66 2e 0f 1f 84 00 	data16 cs nopw 0x0(%rax,%rax,1)
   140001e38:	00 00 00 00 
   140001e3c:	0f 1f 40 00          	nopl   0x0(%rax)

0000000140001e40 <__mingw_setusermatherr>:
   140001e40:	48 89 0d 69 a2 00 00 	mov    %rcx,0xa269(%rip)        # 14000c0b0 <stUserMathErr>
   140001e47:	e9 3c 54 00 00       	jmp    140007288 <__setusermatherr>
   140001e4c:	90                   	nop
   140001e4d:	90                   	nop
   140001e4e:	90                   	nop
   140001e4f:	90                   	nop

0000000140001e50 <_gnu_exception_handler>:
   140001e50:	41 54                	push   %r12
   140001e52:	48 83 ec 20          	sub    $0x20,%rsp
   140001e56:	48 8b 11             	mov    (%rcx),%rdx
   140001e59:	8b 02                	mov    (%rdx),%eax
   140001e5b:	49 89 cc             	mov    %rcx,%r12
   140001e5e:	89 c1                	mov    %eax,%ecx
   140001e60:	81 e1 ff ff ff 20    	and    $0x20ffffff,%ecx
   140001e66:	81 f9 43 43 47 20    	cmp    $0x20474343,%ecx
   140001e6c:	0f 84 ce 00 00 00    	je     140001f40 <_gnu_exception_handler+0xf0>
   140001e72:	3d 96 00 00 c0       	cmp    $0xc0000096,%eax
   140001e77:	0f 87 aa 00 00 00    	ja     140001f27 <_gnu_exception_handler+0xd7>
   140001e7d:	3d 8b 00 00 c0       	cmp    $0xc000008b,%eax
   140001e82:	76 54                	jbe    140001ed8 <_gnu_exception_handler+0x88>
   140001e84:	05 73 ff ff 3f       	add    $0x3fffff73,%eax
   140001e89:	83 f8 09             	cmp    $0x9,%eax
   140001e8c:	77 3a                	ja     140001ec8 <_gnu_exception_handler+0x78>
   140001e8e:	48 8d 15 3b 74 00 00 	lea    0x743b(%rip),%rdx        # 1400092d0 <.rdata>
   140001e95:	48 63 04 82          	movslq (%rdx,%rax,4),%rax
   140001e99:	48 01 d0             	add    %rdx,%rax
   140001e9c:	ff e0                	jmp    *%rax
   140001e9e:	31 d2                	xor    %edx,%edx
   140001ea0:	b9 08 00 00 00       	mov    $0x8,%ecx
   140001ea5:	e8 5e 53 00 00       	call   140007208 <signal>
   140001eaa:	48 83 f8 01          	cmp    $0x1,%rax
   140001eae:	0f 85 b7 00 00 00    	jne    140001f6b <_gnu_exception_handler+0x11b>
   140001eb4:	ba 01 00 00 00       	mov    $0x1,%edx
   140001eb9:	b9 08 00 00 00       	mov    $0x8,%ecx
   140001ebe:	e8 45 53 00 00       	call   140007208 <signal>
   140001ec3:	e8 98 f9 ff ff       	call   140001860 <_fpreset>
   140001ec8:	b8 ff ff ff ff       	mov    $0xffffffff,%eax
   140001ecd:	48 83 c4 20          	add    $0x20,%rsp
   140001ed1:	41 5c                	pop    %r12
   140001ed3:	c3                   	ret    
   140001ed4:	0f 1f 40 00          	nopl   0x0(%rax)
   140001ed8:	3d 05 00 00 c0       	cmp    $0xc0000005,%eax
   140001edd:	0f 84 a5 00 00 00    	je     140001f88 <_gnu_exception_handler+0x138>
   140001ee3:	76 3b                	jbe    140001f20 <_gnu_exception_handler+0xd0>
   140001ee5:	3d 08 00 00 c0       	cmp    $0xc0000008,%eax
   140001eea:	74 dc                	je     140001ec8 <_gnu_exception_handler+0x78>
   140001eec:	3d 1d 00 00 c0       	cmp    $0xc000001d,%eax
   140001ef1:	75 34                	jne    140001f27 <_gnu_exception_handler+0xd7>
   140001ef3:	31 d2                	xor    %edx,%edx
   140001ef5:	b9 04 00 00 00       	mov    $0x4,%ecx
   140001efa:	e8 09 53 00 00       	call   140007208 <signal>
   140001eff:	48 83 f8 01          	cmp    $0x1,%rax
   140001f03:	0f 84 a7 00 00 00    	je     140001fb0 <_gnu_exception_handler+0x160>
   140001f09:	48 85 c0             	test   %rax,%rax
   140001f0c:	74 19                	je     140001f27 <_gnu_exception_handler+0xd7>
   140001f0e:	b9 04 00 00 00       	mov    $0x4,%ecx
   140001f13:	ff d0                	call   *%rax
   140001f15:	b8 ff ff ff ff       	mov    $0xffffffff,%eax
   140001f1a:	eb b1                	jmp    140001ecd <_gnu_exception_handler+0x7d>
   140001f1c:	0f 1f 40 00          	nopl   0x0(%rax)
   140001f20:	3d 02 00 00 80       	cmp    $0x80000002,%eax
   140001f25:	74 a1                	je     140001ec8 <_gnu_exception_handler+0x78>
   140001f27:	48 8b 05 a2 a1 00 00 	mov    0xa1a2(%rip),%rax        # 14000c0d0 <__mingw_oldexcpt_handler>
   140001f2e:	48 85 c0             	test   %rax,%rax
   140001f31:	74 1d                	je     140001f50 <_gnu_exception_handler+0x100>
   140001f33:	4c 89 e1             	mov    %r12,%rcx
   140001f36:	48 83 c4 20          	add    $0x20,%rsp
   140001f3a:	41 5c                	pop    %r12
   140001f3c:	48 ff e0             	rex.W jmp *%rax
   140001f3f:	90                   	nop
   140001f40:	f6 42 04 01          	testb  $0x1,0x4(%rdx)
   140001f44:	0f 85 28 ff ff ff    	jne    140001e72 <_gnu_exception_handler+0x22>
   140001f4a:	e9 79 ff ff ff       	jmp    140001ec8 <_gnu_exception_handler+0x78>
   140001f4f:	90                   	nop
   140001f50:	31 c0                	xor    %eax,%eax
   140001f52:	48 83 c4 20          	add    $0x20,%rsp
   140001f56:	41 5c                	pop    %r12
   140001f58:	c3                   	ret    
   140001f59:	31 d2                	xor    %edx,%edx
   140001f5b:	b9 08 00 00 00       	mov    $0x8,%ecx
   140001f60:	e8 a3 52 00 00       	call   140007208 <signal>
   140001f65:	48 83 f8 01          	cmp    $0x1,%rax
   140001f69:	74 65                	je     140001fd0 <_gnu_exception_handler+0x180>
   140001f6b:	48 85 c0             	test   %rax,%rax
   140001f6e:	74 b7                	je     140001f27 <_gnu_exception_handler+0xd7>
   140001f70:	b9 08 00 00 00       	mov    $0x8,%ecx
   140001f75:	ff d0                	call   *%rax
   140001f77:	b8 ff ff ff ff       	mov    $0xffffffff,%eax
   140001f7c:	e9 4c ff ff ff       	jmp    140001ecd <_gnu_exception_handler+0x7d>
   140001f81:	0f 1f 80 00 00 00 00 	nopl   0x0(%rax)
   140001f88:	31 d2                	xor    %edx,%edx
   140001f8a:	b9 0b 00 00 00       	mov    $0xb,%ecx
   140001f8f:	e8 74 52 00 00       	call   140007208 <signal>
   140001f94:	48 83 f8 01          	cmp    $0x1,%rax
   140001f98:	74 4f                	je     140001fe9 <_gnu_exception_handler+0x199>
   140001f9a:	48 85 c0             	test   %rax,%rax
   140001f9d:	74 88                	je     140001f27 <_gnu_exception_handler+0xd7>
   140001f9f:	b9 0b 00 00 00       	mov    $0xb,%ecx
   140001fa4:	ff d0                	call   *%rax
   140001fa6:	b8 ff ff ff ff       	mov    $0xffffffff,%eax
   140001fab:	e9 1d ff ff ff       	jmp    140001ecd <_gnu_exception_handler+0x7d>
   140001fb0:	ba 01 00 00 00       	mov    $0x1,%edx
   140001fb5:	b9 04 00 00 00       	mov    $0x4,%ecx
   140001fba:	e8 49 52 00 00       	call   140007208 <signal>
   140001fbf:	83 c8 ff             	or     $0xffffffff,%eax
   140001fc2:	e9 06 ff ff ff       	jmp    140001ecd <_gnu_exception_handler+0x7d>
   140001fc7:	66 0f 1f 84 00 00 00 	nopw   0x0(%rax,%rax,1)
   140001fce:	00 00 
   140001fd0:	ba 01 00 00 00       	mov    $0x1,%edx
   140001fd5:	b9 08 00 00 00       	mov    $0x8,%ecx
   140001fda:	e8 29 52 00 00       	call   140007208 <signal>
   140001fdf:	b8 ff ff ff ff       	mov    $0xffffffff,%eax
   140001fe4:	e9 e4 fe ff ff       	jmp    140001ecd <_gnu_exception_handler+0x7d>
   140001fe9:	ba 01 00 00 00       	mov    $0x1,%edx
   140001fee:	b9 0b 00 00 00       	mov    $0xb,%ecx
   140001ff3:	e8 10 52 00 00       	call   140007208 <signal>
   140001ff8:	83 c8 ff             	or     $0xffffffff,%eax
   140001ffb:	e9 cd fe ff ff       	jmp    140001ecd <_gnu_exception_handler+0x7d>

0000000140002000 <__mingwthr_run_key_dtors.part.0>:
   140002000:	41 54                	push   %r12
   140002002:	57                   	push   %rdi
   140002003:	56                   	push   %rsi
   140002004:	53                   	push   %rbx
   140002005:	48 83 ec 28          	sub    $0x28,%rsp
   140002009:	48 8d 0d f0 a0 00 00 	lea    0xa0f0(%rip),%rcx        # 14000c100 <__mingwthr_cs>
   140002010:	ff 15 c6 b1 00 00    	call   *0xb1c6(%rip)        # 14000d1dc <__imp_EnterCriticalSection>
   140002016:	48 8b 1d c3 a0 00 00 	mov    0xa0c3(%rip),%rbx        # 14000c0e0 <key_dtor_list>
   14000201d:	48 85 db             	test   %rbx,%rbx
   140002020:	74 32                	je     140002054 <__mingwthr_run_key_dtors.part.0+0x54>
   140002022:	48 8b 3d fb b1 00 00 	mov    0xb1fb(%rip),%rdi        # 14000d224 <__imp_TlsGetValue>
   140002029:	48 8b 35 b4 b1 00 00 	mov    0xb1b4(%rip),%rsi        # 14000d1e4 <__imp_GetLastError>
   140002030:	8b 0b                	mov    (%rbx),%ecx
   140002032:	ff d7                	call   *%rdi
   140002034:	49 89 c4             	mov    %rax,%r12
   140002037:	ff d6                	call   *%rsi
   140002039:	85 c0                	test   %eax,%eax
   14000203b:	75 0e                	jne    14000204b <__mingwthr_run_key_dtors.part.0+0x4b>
   14000203d:	4d 85 e4             	test   %r12,%r12
   140002040:	74 09                	je     14000204b <__mingwthr_run_key_dtors.part.0+0x4b>
   140002042:	48 8b 43 08          	mov    0x8(%rbx),%rax
   140002046:	4c 89 e1             	mov    %r12,%rcx
   140002049:	ff d0                	call   *%rax
   14000204b:	48 8b 5b 10          	mov    0x10(%rbx),%rbx
   14000204f:	48 85 db             	test   %rbx,%rbx
   140002052:	75 dc                	jne    140002030 <__mingwthr_run_key_dtors.part.0+0x30>
   140002054:	48 8d 0d a5 a0 00 00 	lea    0xa0a5(%rip),%rcx        # 14000c100 <__mingwthr_cs>
   14000205b:	48 83 c4 28          	add    $0x28,%rsp
   14000205f:	5b                   	pop    %rbx
   140002060:	5e                   	pop    %rsi
   140002061:	5f                   	pop    %rdi
   140002062:	41 5c                	pop    %r12
   140002064:	48 ff 25 99 b1 00 00 	rex.W jmp *0xb199(%rip)        # 14000d204 <__imp_LeaveCriticalSection>
   14000206b:	0f 1f 44 00 00       	nopl   0x0(%rax,%rax,1)

0000000140002070 <___w64_mingwthr_add_key_dtor>:
   140002070:	57                   	push   %rdi
   140002071:	56                   	push   %rsi
   140002072:	53                   	push   %rbx
   140002073:	48 83 ec 20          	sub    $0x20,%rsp
   140002077:	8b 05 6b a0 00 00    	mov    0xa06b(%rip),%eax        # 14000c0e8 <__mingwthr_cs_init>
   14000207d:	89 cf                	mov    %ecx,%edi
   14000207f:	48 89 d6             	mov    %rdx,%rsi
   140002082:	85 c0                	test   %eax,%eax
   140002084:	75 0a                	jne    140002090 <___w64_mingwthr_add_key_dtor+0x20>
   140002086:	48 83 c4 20          	add    $0x20,%rsp
   14000208a:	5b                   	pop    %rbx
   14000208b:	5e                   	pop    %rsi
   14000208c:	5f                   	pop    %rdi
   14000208d:	c3                   	ret    
   14000208e:	66 90                	xchg   %ax,%ax
   140002090:	ba 18 00 00 00       	mov    $0x18,%edx
   140002095:	b9 01 00 00 00       	mov    $0x1,%ecx
   14000209a:	e8 b1 51 00 00       	call   140007250 <calloc>
   14000209f:	48 89 c3             	mov    %rax,%rbx
   1400020a2:	48 85 c0             	test   %rax,%rax
   1400020a5:	74 3c                	je     1400020e3 <___w64_mingwthr_add_key_dtor+0x73>
   1400020a7:	89 38                	mov    %edi,(%rax)
   1400020a9:	48 8d 0d 50 a0 00 00 	lea    0xa050(%rip),%rcx        # 14000c100 <__mingwthr_cs>
   1400020b0:	48 89 70 08          	mov    %rsi,0x8(%rax)
   1400020b4:	ff 15 22 b1 00 00    	call   *0xb122(%rip)        # 14000d1dc <__imp_EnterCriticalSection>
   1400020ba:	48 8b 05 1f a0 00 00 	mov    0xa01f(%rip),%rax        # 14000c0e0 <key_dtor_list>
   1400020c1:	48 8d 0d 38 a0 00 00 	lea    0xa038(%rip),%rcx        # 14000c100 <__mingwthr_cs>
   1400020c8:	48 89 1d 11 a0 00 00 	mov    %rbx,0xa011(%rip)        # 14000c0e0 <key_dtor_list>
   1400020cf:	48 89 43 10          	mov    %rax,0x10(%rbx)
   1400020d3:	ff 15 2b b1 00 00    	call   *0xb12b(%rip)        # 14000d204 <__imp_LeaveCriticalSection>
   1400020d9:	31 c0                	xor    %eax,%eax
   1400020db:	48 83 c4 20          	add    $0x20,%rsp
   1400020df:	5b                   	pop    %rbx
   1400020e0:	5e                   	pop    %rsi
   1400020e1:	5f                   	pop    %rdi
   1400020e2:	c3                   	ret    
   1400020e3:	83 c8 ff             	or     $0xffffffff,%eax
   1400020e6:	eb 9e                	jmp    140002086 <___w64_mingwthr_add_key_dtor+0x16>
   1400020e8:	0f 1f 84 00 00 00 00 	nopl   0x0(%rax,%rax,1)
   1400020ef:	00 

00000001400020f0 <___w64_mingwthr_remove_key_dtor>:
   1400020f0:	53                   	push   %rbx
   1400020f1:	48 83 ec 20          	sub    $0x20,%rsp
   1400020f5:	8b 05 ed 9f 00 00    	mov    0x9fed(%rip),%eax        # 14000c0e8 <__mingwthr_cs_init>
   1400020fb:	89 cb                	mov    %ecx,%ebx
   1400020fd:	85 c0                	test   %eax,%eax
   1400020ff:	75 0f                	jne    140002110 <___w64_mingwthr_remove_key_dtor+0x20>
   140002101:	31 c0                	xor    %eax,%eax
   140002103:	48 83 c4 20          	add    $0x20,%rsp
   140002107:	5b                   	pop    %rbx
   140002108:	c3                   	ret    
   140002109:	0f 1f 80 00 00 00 00 	nopl   0x0(%rax)
   140002110:	48 8d 0d e9 9f 00 00 	lea    0x9fe9(%rip),%rcx        # 14000c100 <__mingwthr_cs>
   140002117:	ff 15 bf b0 00 00    	call   *0xb0bf(%rip)        # 14000d1dc <__imp_EnterCriticalSection>
   14000211d:	48 8b 0d bc 9f 00 00 	mov    0x9fbc(%rip),%rcx        # 14000c0e0 <key_dtor_list>
   140002124:	48 85 c9             	test   %rcx,%rcx
   140002127:	74 2a                	je     140002153 <___w64_mingwthr_remove_key_dtor+0x63>
   140002129:	31 d2                	xor    %edx,%edx
   14000212b:	eb 0e                	jmp    14000213b <___w64_mingwthr_remove_key_dtor+0x4b>
   14000212d:	0f 1f 00             	nopl   (%rax)
   140002130:	48 89 ca             	mov    %rcx,%rdx
   140002133:	48 85 c0             	test   %rax,%rax
   140002136:	74 1b                	je     140002153 <___w64_mingwthr_remove_key_dtor+0x63>
   140002138:	48 89 c1             	mov    %rax,%rcx
   14000213b:	8b 01                	mov    (%rcx),%eax
   14000213d:	39 d8                	cmp    %ebx,%eax
   14000213f:	48 8b 41 10          	mov    0x10(%rcx),%rax
   140002143:	75 eb                	jne    140002130 <___w64_mingwthr_remove_key_dtor+0x40>
   140002145:	48 85 d2             	test   %rdx,%rdx
   140002148:	74 26                	je     140002170 <___w64_mingwthr_remove_key_dtor+0x80>
   14000214a:	48 89 42 10          	mov    %rax,0x10(%rdx)
   14000214e:	e8 dd 50 00 00       	call   140007230 <free>
   140002153:	48 8d 0d a6 9f 00 00 	lea    0x9fa6(%rip),%rcx        # 14000c100 <__mingwthr_cs>
   14000215a:	ff 15 a4 b0 00 00    	call   *0xb0a4(%rip)        # 14000d204 <__imp_LeaveCriticalSection>
   140002160:	31 c0                	xor    %eax,%eax
   140002162:	48 83 c4 20          	add    $0x20,%rsp
   140002166:	5b                   	pop    %rbx
   140002167:	c3                   	ret    
   140002168:	0f 1f 84 00 00 00 00 	nopl   0x0(%rax,%rax,1)
   14000216f:	00 
   140002170:	48 89 05 69 9f 00 00 	mov    %rax,0x9f69(%rip)        # 14000c0e0 <key_dtor_list>
   140002177:	eb d5                	jmp    14000214e <___w64_mingwthr_remove_key_dtor+0x5e>
   140002179:	0f 1f 80 00 00 00 00 	nopl   0x0(%rax)

0000000140002180 <__mingw_TLScallback>:
   140002180:	53                   	push   %rbx
   140002181:	48 83 ec 20          	sub    $0x20,%rsp
   140002185:	83 fa 02             	cmp    $0x2,%edx
   140002188:	0f 84 c2 00 00 00    	je     140002250 <__mingw_TLScallback+0xd0>
   14000218e:	77 28                	ja     1400021b8 <__mingw_TLScallback+0x38>
   140002190:	85 d2                	test   %edx,%edx
   140002192:	74 4c                	je     1400021e0 <__mingw_TLScallback+0x60>
   140002194:	8b 05 4e 9f 00 00    	mov    0x9f4e(%rip),%eax        # 14000c0e8 <__mingwthr_cs_init>
   14000219a:	85 c0                	test   %eax,%eax
   14000219c:	74 32                	je     1400021d0 <__mingw_TLScallback+0x50>
   14000219e:	c7 05 40 9f 00 00 01 	movl   $0x1,0x9f40(%rip)        # 14000c0e8 <__mingwthr_cs_init>
   1400021a5:	00 00 00 
   1400021a8:	b8 01 00 00 00       	mov    $0x1,%eax
   1400021ad:	48 83 c4 20          	add    $0x20,%rsp
   1400021b1:	5b                   	pop    %rbx
   1400021b2:	c3                   	ret    
   1400021b3:	0f 1f 44 00 00       	nopl   0x0(%rax,%rax,1)
   1400021b8:	83 fa 03             	cmp    $0x3,%edx
   1400021bb:	75 eb                	jne    1400021a8 <__mingw_TLScallback+0x28>
   1400021bd:	8b 05 25 9f 00 00    	mov    0x9f25(%rip),%eax        # 14000c0e8 <__mingwthr_cs_init>
   1400021c3:	85 c0                	test   %eax,%eax
   1400021c5:	74 e1                	je     1400021a8 <__mingw_TLScallback+0x28>
   1400021c7:	e8 34 fe ff ff       	call   140002000 <__mingwthr_run_key_dtors.part.0>
   1400021cc:	eb da                	jmp    1400021a8 <__mingw_TLScallback+0x28>
   1400021ce:	66 90                	xchg   %ax,%ax
   1400021d0:	48 8d 0d 29 9f 00 00 	lea    0x9f29(%rip),%rcx        # 14000c100 <__mingwthr_cs>
   1400021d7:	ff 15 17 b0 00 00    	call   *0xb017(%rip)        # 14000d1f4 <__imp_InitializeCriticalSection>
   1400021dd:	eb bf                	jmp    14000219e <__mingw_TLScallback+0x1e>
   1400021df:	90                   	nop
   1400021e0:	8b 05 02 9f 00 00    	mov    0x9f02(%rip),%eax        # 14000c0e8 <__mingwthr_cs_init>
   1400021e6:	85 c0                	test   %eax,%eax
   1400021e8:	74 05                	je     1400021ef <__mingw_TLScallback+0x6f>
   1400021ea:	e8 11 fe ff ff       	call   140002000 <__mingwthr_run_key_dtors.part.0>
   1400021ef:	8b 05 f3 9e 00 00    	mov    0x9ef3(%rip),%eax        # 14000c0e8 <__mingwthr_cs_init>
   1400021f5:	83 f8 01             	cmp    $0x1,%eax
   1400021f8:	75 ae                	jne    1400021a8 <__mingw_TLScallback+0x28>
   1400021fa:	48 8b 1d df 9e 00 00 	mov    0x9edf(%rip),%rbx        # 14000c0e0 <key_dtor_list>
   140002201:	48 85 db             	test   %rbx,%rbx
   140002204:	74 1b                	je     140002221 <__mingw_TLScallback+0xa1>
   140002206:	66 2e 0f 1f 84 00 00 	cs nopw 0x0(%rax,%rax,1)
   14000220d:	00 00 00 
   140002210:	48 89 d9             	mov    %rbx,%rcx
   140002213:	48 8b 5b 10          	mov    0x10(%rbx),%rbx
   140002217:	e8 14 50 00 00       	call   140007230 <free>
   14000221c:	48 85 db             	test   %rbx,%rbx
   14000221f:	75 ef                	jne    140002210 <__mingw_TLScallback+0x90>
   140002221:	48 8d 0d d8 9e 00 00 	lea    0x9ed8(%rip),%rcx        # 14000c100 <__mingwthr_cs>
   140002228:	48 c7 05 ad 9e 00 00 	movq   $0x0,0x9ead(%rip)        # 14000c0e0 <key_dtor_list>
   14000222f:	00 00 00 00 
   140002233:	c7 05 ab 9e 00 00 00 	movl   $0x0,0x9eab(%rip)        # 14000c0e8 <__mingwthr_cs_init>
   14000223a:	00 00 00 
   14000223d:	ff 15 91 af 00 00    	call   *0xaf91(%rip)        # 14000d1d4 <__IAT_start__>
   140002243:	e9 60 ff ff ff       	jmp    1400021a8 <__mingw_TLScallback+0x28>
   140002248:	0f 1f 84 00 00 00 00 	nopl   0x0(%rax,%rax,1)
   14000224f:	00 
   140002250:	e8 0b f6 ff ff       	call   140001860 <_fpreset>
   140002255:	b8 01 00 00 00       	mov    $0x1,%eax
   14000225a:	48 83 c4 20          	add    $0x20,%rsp
   14000225e:	5b                   	pop    %rbx
   14000225f:	c3                   	ret    

0000000140002260 <_ValidateImageBase.part.0>:
   140002260:	48 63 41 3c          	movslq 0x3c(%rcx),%rax
   140002264:	48 8d 14 08          	lea    (%rax,%rcx,1),%rdx
   140002268:	31 c0                	xor    %eax,%eax
   14000226a:	81 3a 50 45 00 00    	cmpl   $0x4550,(%rdx)
   140002270:	75 0b                	jne    14000227d <_ValidateImageBase.part.0+0x1d>
   140002272:	31 c0                	xor    %eax,%eax
   140002274:	66 81 7a 18 0b 02    	cmpw   $0x20b,0x18(%rdx)
   14000227a:	0f 94 c0             	sete   %al
   14000227d:	c3                   	ret    
   14000227e:	66 90                	xchg   %ax,%ax

0000000140002280 <_ValidateImageBase>:
   140002280:	66 81 39 4d 5a       	cmpw   $0x5a4d,(%rcx)
   140002285:	75 09                	jne    140002290 <_ValidateImageBase+0x10>
   140002287:	eb d7                	jmp    140002260 <_ValidateImageBase.part.0>
   140002289:	0f 1f 80 00 00 00 00 	nopl   0x0(%rax)
   140002290:	31 c0                	xor    %eax,%eax
   140002292:	c3                   	ret    
   140002293:	66 66 2e 0f 1f 84 00 	data16 cs nopw 0x0(%rax,%rax,1)
   14000229a:	00 00 00 00 
   14000229e:	66 90                	xchg   %ax,%ax

00000001400022a0 <_FindPESection>:
   1400022a0:	48 63 41 3c          	movslq 0x3c(%rcx),%rax
   1400022a4:	48 01 c1             	add    %rax,%rcx
   1400022a7:	0f b7 41 14          	movzwl 0x14(%rcx),%eax
   1400022ab:	48 8d 44 01 18       	lea    0x18(%rcx,%rax,1),%rax
   1400022b0:	0f b7 49 06          	movzwl 0x6(%rcx),%ecx
   1400022b4:	85 c9                	test   %ecx,%ecx
   1400022b6:	74 2d                	je     1400022e5 <_FindPESection+0x45>
   1400022b8:	83 e9 01             	sub    $0x1,%ecx
   1400022bb:	48 8d 0c 89          	lea    (%rcx,%rcx,4),%rcx
   1400022bf:	4c 8d 4c c8 28       	lea    0x28(%rax,%rcx,8),%r9
   1400022c4:	0f 1f 40 00          	nopl   0x0(%rax)
   1400022c8:	44 8b 40 0c          	mov    0xc(%rax),%r8d
   1400022cc:	4c 89 c1             	mov    %r8,%rcx
   1400022cf:	49 39 d0             	cmp    %rdx,%r8
   1400022d2:	77 08                	ja     1400022dc <_FindPESection+0x3c>
   1400022d4:	03 48 08             	add    0x8(%rax),%ecx
   1400022d7:	48 39 d1             	cmp    %rdx,%rcx
   1400022da:	77 0b                	ja     1400022e7 <_FindPESection+0x47>
   1400022dc:	48 83 c0 28          	add    $0x28,%rax
   1400022e0:	4c 39 c8             	cmp    %r9,%rax
   1400022e3:	75 e3                	jne    1400022c8 <_FindPESection+0x28>
   1400022e5:	31 c0                	xor    %eax,%eax
   1400022e7:	c3                   	ret    
   1400022e8:	0f 1f 84 00 00 00 00 	nopl   0x0(%rax,%rax,1)
   1400022ef:	00 

00000001400022f0 <_FindPESectionByName>:
   1400022f0:	41 54                	push   %r12
   1400022f2:	56                   	push   %rsi
   1400022f3:	53                   	push   %rbx
   1400022f4:	48 83 ec 20          	sub    $0x20,%rsp
   1400022f8:	48 89 cb             	mov    %rcx,%rbx
   1400022fb:	e8 f8 4e 00 00       	call   1400071f8 <strlen>
   140002300:	48 83 f8 08          	cmp    $0x8,%rax
   140002304:	77 7a                	ja     140002380 <_FindPESectionByName+0x90>
   140002306:	48 8b 0d d3 73 00 00 	mov    0x73d3(%rip),%rcx        # 1400096e0 <.refptr.__image_base__>
   14000230d:	45 31 e4             	xor    %r12d,%r12d
   140002310:	66 81 39 4d 5a       	cmpw   $0x5a4d,(%rcx)
   140002315:	75 57                	jne    14000236e <_FindPESectionByName+0x7e>
   140002317:	e8 44 ff ff ff       	call   140002260 <_ValidateImageBase.part.0>
   14000231c:	85 c0                	test   %eax,%eax
   14000231e:	74 4e                	je     14000236e <_FindPESectionByName+0x7e>
   140002320:	48 63 41 3c          	movslq 0x3c(%rcx),%rax
   140002324:	48 01 c1             	add    %rax,%rcx
   140002327:	0f b7 41 14          	movzwl 0x14(%rcx),%eax
   14000232b:	4c 8d 64 01 18       	lea    0x18(%rcx,%rax,1),%r12
   140002330:	0f b7 41 06          	movzwl 0x6(%rcx),%eax
   140002334:	85 c0                	test   %eax,%eax
   140002336:	74 48                	je     140002380 <_FindPESectionByName+0x90>
   140002338:	83 e8 01             	sub    $0x1,%eax
   14000233b:	48 8d 04 80          	lea    (%rax,%rax,4),%rax
   14000233f:	49 8d 74 c4 28       	lea    0x28(%r12,%rax,8),%rsi
   140002344:	eb 13                	jmp    140002359 <_FindPESectionByName+0x69>
   140002346:	66 2e 0f 1f 84 00 00 	cs nopw 0x0(%rax,%rax,1)
   14000234d:	00 00 00 
   140002350:	49 83 c4 28          	add    $0x28,%r12
   140002354:	49 39 f4             	cmp    %rsi,%r12
   140002357:	74 27                	je     140002380 <_FindPESectionByName+0x90>
   140002359:	41 b8 08 00 00 00    	mov    $0x8,%r8d
   14000235f:	48 89 da             	mov    %rbx,%rdx
   140002362:	4c 89 e1             	mov    %r12,%rcx
   140002365:	e8 86 4e 00 00       	call   1400071f0 <strncmp>
   14000236a:	85 c0                	test   %eax,%eax
   14000236c:	75 e2                	jne    140002350 <_FindPESectionByName+0x60>
   14000236e:	4c 89 e0             	mov    %r12,%rax
   140002371:	48 83 c4 20          	add    $0x20,%rsp
   140002375:	5b                   	pop    %rbx
   140002376:	5e                   	pop    %rsi
   140002377:	41 5c                	pop    %r12
   140002379:	c3                   	ret    
   14000237a:	66 0f 1f 44 00 00    	nopw   0x0(%rax,%rax,1)
   140002380:	45 31 e4             	xor    %r12d,%r12d
   140002383:	4c 89 e0             	mov    %r12,%rax
   140002386:	48 83 c4 20          	add    $0x20,%rsp
   14000238a:	5b                   	pop    %rbx
   14000238b:	5e                   	pop    %rsi
   14000238c:	41 5c                	pop    %r12
   14000238e:	c3                   	ret    
   14000238f:	90                   	nop

0000000140002390 <__mingw_GetSectionForAddress>:
   140002390:	48 83 ec 28          	sub    $0x28,%rsp
   140002394:	4c 8b 15 45 73 00 00 	mov    0x7345(%rip),%r10        # 1400096e0 <.refptr.__image_base__>
   14000239b:	45 31 c0             	xor    %r8d,%r8d
   14000239e:	66 41 81 3a 4d 5a    	cmpw   $0x5a4d,(%r10)
   1400023a4:	49 89 c9             	mov    %rcx,%r9
   1400023a7:	75 60                	jne    140002409 <__mingw_GetSectionForAddress+0x79>
   1400023a9:	4c 89 d1             	mov    %r10,%rcx
   1400023ac:	e8 af fe ff ff       	call   140002260 <_ValidateImageBase.part.0>
   1400023b1:	85 c0                	test   %eax,%eax
   1400023b3:	74 54                	je     140002409 <__mingw_GetSectionForAddress+0x79>
   1400023b5:	49 63 42 3c          	movslq 0x3c(%r10),%rax
   1400023b9:	4c 89 c9             	mov    %r9,%rcx
   1400023bc:	4c 29 d1             	sub    %r10,%rcx
   1400023bf:	49 01 c2             	add    %rax,%r10
   1400023c2:	41 0f b7 42 14       	movzwl 0x14(%r10),%eax
   1400023c7:	4d 8d 44 02 18       	lea    0x18(%r10,%rax,1),%r8
   1400023cc:	41 0f b7 42 06       	movzwl 0x6(%r10),%eax
   1400023d1:	85 c0                	test   %eax,%eax
   1400023d3:	74 31                	je     140002406 <__mingw_GetSectionForAddress+0x76>
   1400023d5:	83 e8 01             	sub    $0x1,%eax
   1400023d8:	48 8d 04 80          	lea    (%rax,%rax,4),%rax
   1400023dc:	4d 8d 4c c0 28       	lea    0x28(%r8,%rax,8),%r9
   1400023e1:	0f 1f 80 00 00 00 00 	nopl   0x0(%rax)
   1400023e8:	41 8b 50 0c          	mov    0xc(%r8),%edx
   1400023ec:	48 89 d0             	mov    %rdx,%rax
   1400023ef:	48 39 d1             	cmp    %rdx,%rcx
   1400023f2:	72 09                	jb     1400023fd <__mingw_GetSectionForAddress+0x6d>
   1400023f4:	41 03 40 08          	add    0x8(%r8),%eax
   1400023f8:	48 39 c1             	cmp    %rax,%rcx
   1400023fb:	72 0c                	jb     140002409 <__mingw_GetSectionForAddress+0x79>
   1400023fd:	49 83 c0 28          	add    $0x28,%r8
   140002401:	4d 39 c8             	cmp    %r9,%r8
   140002404:	75 e2                	jne    1400023e8 <__mingw_GetSectionForAddress+0x58>
   140002406:	45 31 c0             	xor    %r8d,%r8d
   140002409:	4c 89 c0             	mov    %r8,%rax
   14000240c:	48 83 c4 28          	add    $0x28,%rsp
   140002410:	c3                   	ret    
   140002411:	66 66 2e 0f 1f 84 00 	data16 cs nopw 0x0(%rax,%rax,1)
   140002418:	00 00 00 00 
   14000241c:	0f 1f 40 00          	nopl   0x0(%rax)

0000000140002420 <__mingw_GetSectionCount>:
   140002420:	48 83 ec 28          	sub    $0x28,%rsp
   140002424:	48 8b 0d b5 72 00 00 	mov    0x72b5(%rip),%rcx        # 1400096e0 <.refptr.__image_base__>
   14000242b:	31 c0                	xor    %eax,%eax
   14000242d:	66 81 39 4d 5a       	cmpw   $0x5a4d,(%rcx)
   140002432:	75 12                	jne    140002446 <__mingw_GetSectionCount+0x26>
   140002434:	e8 27 fe ff ff       	call   140002260 <_ValidateImageBase.part.0>
   140002439:	85 c0                	test   %eax,%eax
   14000243b:	74 09                	je     140002446 <__mingw_GetSectionCount+0x26>
   14000243d:	48 63 41 3c          	movslq 0x3c(%rcx),%rax
   140002441:	0f b7 44 08 06       	movzwl 0x6(%rax,%rcx,1),%eax
   140002446:	48 83 c4 28          	add    $0x28,%rsp
   14000244a:	c3                   	ret    
   14000244b:	0f 1f 44 00 00       	nopl   0x0(%rax,%rax,1)

0000000140002450 <_FindPESectionExec>:
   140002450:	48 83 ec 28          	sub    $0x28,%rsp
   140002454:	45 31 c0             	xor    %r8d,%r8d
   140002457:	49 89 c9             	mov    %rcx,%r9
   14000245a:	48 8b 0d 7f 72 00 00 	mov    0x727f(%rip),%rcx        # 1400096e0 <.refptr.__image_base__>
   140002461:	66 81 39 4d 5a       	cmpw   $0x5a4d,(%rcx)
   140002466:	75 4c                	jne    1400024b4 <_FindPESectionExec+0x64>
   140002468:	e8 f3 fd ff ff       	call   140002260 <_ValidateImageBase.part.0>
   14000246d:	85 c0                	test   %eax,%eax
   14000246f:	74 43                	je     1400024b4 <_FindPESectionExec+0x64>
   140002471:	48 63 41 3c          	movslq 0x3c(%rcx),%rax
   140002475:	48 01 c1             	add    %rax,%rcx
   140002478:	0f b7 41 14          	movzwl 0x14(%rcx),%eax
   14000247c:	4c 8d 44 01 18       	lea    0x18(%rcx,%rax,1),%r8
   140002481:	0f b7 41 06          	movzwl 0x6(%rcx),%eax
   140002485:	85 c0                	test   %eax,%eax
   140002487:	74 28                	je     1400024b1 <_FindPESectionExec+0x61>
   140002489:	83 e8 01             	sub    $0x1,%eax
   14000248c:	48 8d 04 80          	lea    (%rax,%rax,4),%rax
   140002490:	49 8d 44 c0 28       	lea    0x28(%r8,%rax,8),%rax
   140002495:	0f 1f 00             	nopl   (%rax)
   140002498:	41 f6 40 27 20       	testb  $0x20,0x27(%r8)
   14000249d:	74 09                	je     1400024a8 <_FindPESectionExec+0x58>
   14000249f:	4d 85 c9             	test   %r9,%r9
   1400024a2:	74 10                	je     1400024b4 <_FindPESectionExec+0x64>
   1400024a4:	49 83 e9 01          	sub    $0x1,%r9
   1400024a8:	49 83 c0 28          	add    $0x28,%r8
   1400024ac:	49 39 c0             	cmp    %rax,%r8
   1400024af:	75 e7                	jne    140002498 <_FindPESectionExec+0x48>
   1400024b1:	45 31 c0             	xor    %r8d,%r8d
   1400024b4:	4c 89 c0             	mov    %r8,%rax
   1400024b7:	48 83 c4 28          	add    $0x28,%rsp
   1400024bb:	c3                   	ret    
   1400024bc:	0f 1f 40 00          	nopl   0x0(%rax)

00000001400024c0 <_GetPEImageBase>:
   1400024c0:	48 83 ec 28          	sub    $0x28,%rsp
   1400024c4:	48 8b 0d 15 72 00 00 	mov    0x7215(%rip),%rcx        # 1400096e0 <.refptr.__image_base__>
   1400024cb:	45 31 c0             	xor    %r8d,%r8d
   1400024ce:	66 81 39 4d 5a       	cmpw   $0x5a4d,(%rcx)
   1400024d3:	75 0b                	jne    1400024e0 <_GetPEImageBase+0x20>
   1400024d5:	e8 86 fd ff ff       	call   140002260 <_ValidateImageBase.part.0>
   1400024da:	85 c0                	test   %eax,%eax
   1400024dc:	4c 0f 45 c1          	cmovne %rcx,%r8
   1400024e0:	4c 89 c0             	mov    %r8,%rax
   1400024e3:	48 83 c4 28          	add    $0x28,%rsp
   1400024e7:	c3                   	ret    
   1400024e8:	0f 1f 84 00 00 00 00 	nopl   0x0(%rax,%rax,1)
   1400024ef:	00 

00000001400024f0 <_IsNonwritableInCurrentImage>:
   1400024f0:	48 83 ec 28          	sub    $0x28,%rsp
   1400024f4:	4c 8b 0d e5 71 00 00 	mov    0x71e5(%rip),%r9        # 1400096e0 <.refptr.__image_base__>
   1400024fb:	31 c0                	xor    %eax,%eax
   1400024fd:	66 41 81 39 4d 5a    	cmpw   $0x5a4d,(%r9)
   140002503:	49 89 c8             	mov    %rcx,%r8
   140002506:	75 57                	jne    14000255f <_IsNonwritableInCurrentImage+0x6f>
   140002508:	4c 89 c9             	mov    %r9,%rcx
   14000250b:	e8 50 fd ff ff       	call   140002260 <_ValidateImageBase.part.0>
   140002510:	85 c0                	test   %eax,%eax
   140002512:	74 4b                	je     14000255f <_IsNonwritableInCurrentImage+0x6f>
   140002514:	49 63 41 3c          	movslq 0x3c(%r9),%rax
   140002518:	4c 89 c1             	mov    %r8,%rcx
   14000251b:	4c 29 c9             	sub    %r9,%rcx
   14000251e:	49 01 c1             	add    %rax,%r9
   140002521:	41 0f b7 41 14       	movzwl 0x14(%r9),%eax
   140002526:	41 0f b7 51 06       	movzwl 0x6(%r9),%edx
   14000252b:	49 8d 44 01 18       	lea    0x18(%r9,%rax,1),%rax
   140002530:	85 d2                	test   %edx,%edx
   140002532:	74 29                	je     14000255d <_IsNonwritableInCurrentImage+0x6d>
   140002534:	83 ea 01             	sub    $0x1,%edx
   140002537:	48 8d 14 92          	lea    (%rdx,%rdx,4),%rdx
   14000253b:	4c 8d 4c d0 28       	lea    0x28(%rax,%rdx,8),%r9
   140002540:	44 8b 40 0c          	mov    0xc(%rax),%r8d
   140002544:	4c 89 c2             	mov    %r8,%rdx
   140002547:	4c 39 c1             	cmp    %r8,%rcx
   14000254a:	72 08                	jb     140002554 <_IsNonwritableInCurrentImage+0x64>
   14000254c:	03 50 08             	add    0x8(%rax),%edx
   14000254f:	48 39 d1             	cmp    %rdx,%rcx
   140002552:	72 14                	jb     140002568 <_IsNonwritableInCurrentImage+0x78>
   140002554:	48 83 c0 28          	add    $0x28,%rax
   140002558:	4c 39 c8             	cmp    %r9,%rax
   14000255b:	75 e3                	jne    140002540 <_IsNonwritableInCurrentImage+0x50>
   14000255d:	31 c0                	xor    %eax,%eax
   14000255f:	48 83 c4 28          	add    $0x28,%rsp
   140002563:	c3                   	ret    
   140002564:	0f 1f 40 00          	nopl   0x0(%rax)
   140002568:	8b 40 24             	mov    0x24(%rax),%eax
   14000256b:	f7 d0                	not    %eax
   14000256d:	c1 e8 1f             	shr    $0x1f,%eax
   140002570:	48 83 c4 28          	add    $0x28,%rsp
   140002574:	c3                   	ret    
   140002575:	66 66 2e 0f 1f 84 00 	data16 cs nopw 0x0(%rax,%rax,1)
   14000257c:	00 00 00 00 

0000000140002580 <__mingw_enum_import_library_names>:
   140002580:	48 83 ec 28          	sub    $0x28,%rsp
   140002584:	4c 8b 1d 55 71 00 00 	mov    0x7155(%rip),%r11        # 1400096e0 <.refptr.__image_base__>
   14000258b:	45 31 c9             	xor    %r9d,%r9d
   14000258e:	66 41 81 3b 4d 5a    	cmpw   $0x5a4d,(%r11)
   140002594:	41 89 c8             	mov    %ecx,%r8d
   140002597:	75 5f                	jne    1400025f8 <__mingw_enum_import_library_names+0x78>
   140002599:	4c 89 d9             	mov    %r11,%rcx
   14000259c:	e8 bf fc ff ff       	call   140002260 <_ValidateImageBase.part.0>
   1400025a1:	85 c0                	test   %eax,%eax
   1400025a3:	74 53                	je     1400025f8 <__mingw_enum_import_library_names+0x78>
   1400025a5:	49 63 4b 3c          	movslq 0x3c(%r11),%rcx
   1400025a9:	4c 01 d9             	add    %r11,%rcx
   1400025ac:	8b 81 90 00 00 00    	mov    0x90(%rcx),%eax
   1400025b2:	85 c0                	test   %eax,%eax
   1400025b4:	74 42                	je     1400025f8 <__mingw_enum_import_library_names+0x78>
   1400025b6:	0f b7 51 14          	movzwl 0x14(%rcx),%edx
   1400025ba:	48 8d 54 11 18       	lea    0x18(%rcx,%rdx,1),%rdx
   1400025bf:	0f b7 49 06          	movzwl 0x6(%rcx),%ecx
   1400025c3:	85 c9                	test   %ecx,%ecx
   1400025c5:	74 31                	je     1400025f8 <__mingw_enum_import_library_names+0x78>
   1400025c7:	83 e9 01             	sub    $0x1,%ecx
   1400025ca:	48 8d 0c 89          	lea    (%rcx,%rcx,4),%rcx
   1400025ce:	4c 8d 54 ca 28       	lea    0x28(%rdx,%rcx,8),%r10
   1400025d3:	0f 1f 44 00 00       	nopl   0x0(%rax,%rax,1)
   1400025d8:	44 8b 4a 0c          	mov    0xc(%rdx),%r9d
   1400025dc:	4c 89 c9             	mov    %r9,%rcx
   1400025df:	4c 39 c8             	cmp    %r9,%rax
   1400025e2:	72 08                	jb     1400025ec <__mingw_enum_import_library_names+0x6c>
   1400025e4:	03 4a 08             	add    0x8(%rdx),%ecx
   1400025e7:	48 39 c8             	cmp    %rcx,%rax
   1400025ea:	72 14                	jb     140002600 <__mingw_enum_import_library_names+0x80>
   1400025ec:	48 83 c2 28          	add    $0x28,%rdx
   1400025f0:	4c 39 d2             	cmp    %r10,%rdx
   1400025f3:	75 e3                	jne    1400025d8 <__mingw_enum_import_library_names+0x58>
   1400025f5:	45 31 c9             	xor    %r9d,%r9d
   1400025f8:	4c 89 c8             	mov    %r9,%rax
   1400025fb:	48 83 c4 28          	add    $0x28,%rsp
   1400025ff:	c3                   	ret    
   140002600:	4c 01 d8             	add    %r11,%rax
   140002603:	eb 0b                	jmp    140002610 <__mingw_enum_import_library_names+0x90>
   140002605:	0f 1f 00             	nopl   (%rax)
   140002608:	41 83 e8 01          	sub    $0x1,%r8d
   14000260c:	48 83 c0 14          	add    $0x14,%rax
   140002610:	8b 48 04             	mov    0x4(%rax),%ecx
   140002613:	85 c9                	test   %ecx,%ecx
   140002615:	75 07                	jne    14000261e <__mingw_enum_import_library_names+0x9e>
   140002617:	8b 50 0c             	mov    0xc(%rax),%edx
   14000261a:	85 d2                	test   %edx,%edx
   14000261c:	74 d7                	je     1400025f5 <__mingw_enum_import_library_names+0x75>
   14000261e:	45 85 c0             	test   %r8d,%r8d
   140002621:	7f e5                	jg     140002608 <__mingw_enum_import_library_names+0x88>
   140002623:	44 8b 48 0c          	mov    0xc(%rax),%r9d
   140002627:	4d 01 d9             	add    %r11,%r9
   14000262a:	4c 89 c8             	mov    %r9,%rax
   14000262d:	48 83 c4 28          	add    $0x28,%rsp
   140002631:	c3                   	ret    
   140002632:	90                   	nop
   140002633:	90                   	nop
   140002634:	90                   	nop
   140002635:	90                   	nop
   140002636:	90                   	nop
   140002637:	90                   	nop
   140002638:	90                   	nop
   140002639:	90                   	nop
   14000263a:	90                   	nop
   14000263b:	90                   	nop
   14000263c:	90                   	nop
   14000263d:	90                   	nop
   14000263e:	90                   	nop
   14000263f:	90                   	nop

0000000140002640 <___chkstk_ms>:
   140002640:	51                   	push   %rcx
   140002641:	50                   	push   %rax
   140002642:	48 3d 00 10 00 00    	cmp    $0x1000,%rax
   140002648:	48 8d 4c 24 18       	lea    0x18(%rsp),%rcx
   14000264d:	72 19                	jb     140002668 <___chkstk_ms+0x28>
   14000264f:	48 81 e9 00 10 00 00 	sub    $0x1000,%rcx
   140002656:	48 83 09 00          	orq    $0x0,(%rcx)
   14000265a:	48 2d 00 10 00 00    	sub    $0x1000,%rax
   140002660:	48 3d 00 10 00 00    	cmp    $0x1000,%rax
   140002666:	77 e7                	ja     14000264f <___chkstk_ms+0xf>
   140002668:	48 29 c1             	sub    %rax,%rcx
   14000266b:	48 83 09 00          	orq    $0x0,(%rcx)
   14000266f:	58                   	pop    %rax
   140002670:	59                   	pop    %rcx
   140002671:	c3                   	ret    
   140002672:	90                   	nop
   140002673:	90                   	nop
   140002674:	90                   	nop
   140002675:	90                   	nop
   140002676:	90                   	nop
   140002677:	90                   	nop
   140002678:	90                   	nop
   140002679:	90                   	nop
   14000267a:	90                   	nop
   14000267b:	90                   	nop
   14000267c:	90                   	nop
   14000267d:	90                   	nop
   14000267e:	90                   	nop
   14000267f:	90                   	nop

0000000140002680 <__mingw_vfprintf>:
   140002680:	41 55                	push   %r13
   140002682:	41 54                	push   %r12
   140002684:	53                   	push   %rbx
   140002685:	48 83 ec 30          	sub    $0x30,%rsp
   140002689:	4c 89 c3             	mov    %r8,%rbx
   14000268c:	49 89 cc             	mov    %rcx,%r12
   14000268f:	49 89 d5             	mov    %rdx,%r13
   140002692:	e8 99 51 00 00       	call   140007830 <_lock_file>
   140002697:	48 89 5c 24 20       	mov    %rbx,0x20(%rsp)
   14000269c:	4d 89 e9             	mov    %r13,%r9
   14000269f:	45 31 c0             	xor    %r8d,%r8d
   1400026a2:	4c 89 e2             	mov    %r12,%rdx
   1400026a5:	b9 00 60 00 00       	mov    $0x6000,%ecx
   1400026aa:	e8 f1 1a 00 00       	call   1400041a0 <__mingw_pformat>
   1400026af:	4c 89 e1             	mov    %r12,%rcx
   1400026b2:	41 89 c5             	mov    %eax,%r13d
   1400026b5:	e8 e6 51 00 00       	call   1400078a0 <_unlock_file>
   1400026ba:	44 89 e8             	mov    %r13d,%eax
   1400026bd:	48 83 c4 30          	add    $0x30,%rsp
   1400026c1:	5b                   	pop    %rbx
   1400026c2:	41 5c                	pop    %r12
   1400026c4:	41 5d                	pop    %r13
   1400026c6:	c3                   	ret    
   1400026c7:	90                   	nop
   1400026c8:	90                   	nop
   1400026c9:	90                   	nop
   1400026ca:	90                   	nop
   1400026cb:	90                   	nop
   1400026cc:	90                   	nop
   1400026cd:	90                   	nop
   1400026ce:	90                   	nop
   1400026cf:	90                   	nop

00000001400026d0 <__pformat_cvt>:
   1400026d0:	48 83 ec 58          	sub    $0x58,%rsp
   1400026d4:	44 8b 5a 08          	mov    0x8(%rdx),%r11d
   1400026d8:	4c 8b 12             	mov    (%rdx),%r10
   1400026db:	4c 89 d8             	mov    %r11,%rax
   1400026de:	66 25 ff 7f          	and    $0x7fff,%ax
   1400026e2:	0f 85 80 00 00 00    	jne    140002768 <__pformat_cvt+0x98>
   1400026e8:	4d 89 d3             	mov    %r10,%r11
   1400026eb:	0f b7 42 08          	movzwl 0x8(%rdx),%eax
   1400026ef:	49 c1 eb 20          	shr    $0x20,%r11
   1400026f3:	45 09 da             	or     %r11d,%r10d
   1400026f6:	0f 84 7c 00 00 00    	je     140002778 <__pformat_cvt+0xa8>
   1400026fc:	45 85 db             	test   %r11d,%r11d
   1400026ff:	0f 89 c3 00 00 00    	jns    1400027c8 <__pformat_cvt+0xf8>
   140002705:	41 89 c3             	mov    %eax,%r11d
   140002708:	c7 44 24 44 01 00 00 	movl   $0x1,0x44(%rsp)
   14000270f:	00 
   140002710:	41 81 e3 ff 7f 00 00 	and    $0x7fff,%r11d
   140002717:	41 81 eb 3e 40 00 00 	sub    $0x403e,%r11d
   14000271e:	66 90                	xchg   %ax,%ax
   140002720:	25 00 80 00 00       	and    $0x8000,%eax
   140002725:	4c 8b 94 24 80 00 00 	mov    0x80(%rsp),%r10
   14000272c:	00 
   14000272d:	41 89 02             	mov    %eax,(%r10)
   140002730:	48 8d 44 24 48       	lea    0x48(%rsp),%rax
   140002735:	4c 89 4c 24 30       	mov    %r9,0x30(%rsp)
   14000273a:	4c 8d 4c 24 44       	lea    0x44(%rsp),%r9
   14000273f:	44 89 44 24 28       	mov    %r8d,0x28(%rsp)
   140002744:	49 89 d0             	mov    %rdx,%r8
   140002747:	44 89 da             	mov    %r11d,%edx
   14000274a:	89 4c 24 20          	mov    %ecx,0x20(%rsp)
   14000274e:	48 8d 0d 0b 59 00 00 	lea    0x590b(%rip),%rcx        # 140008060 <fpi.6299>
   140002755:	48 89 44 24 38       	mov    %rax,0x38(%rsp)
   14000275a:	e8 f1 25 00 00       	call   140004d50 <__gdtoa>
   14000275f:	48 83 c4 58          	add    $0x58,%rsp
   140002763:	c3                   	ret    
   140002764:	0f 1f 40 00          	nopl   0x0(%rax)
   140002768:	66 3d ff 7f          	cmp    $0x7fff,%ax
   14000276c:	74 1a                	je     140002788 <__pformat_cvt+0xb8>
   14000276e:	0f b7 42 08          	movzwl 0x8(%rdx),%eax
   140002772:	eb 91                	jmp    140002705 <__pformat_cvt+0x35>
   140002774:	0f 1f 40 00          	nopl   0x0(%rax)
   140002778:	c7 44 24 44 00 00 00 	movl   $0x0,0x44(%rsp)
   14000277f:	00 
   140002780:	45 31 db             	xor    %r11d,%r11d
   140002783:	eb 9b                	jmp    140002720 <__pformat_cvt+0x50>
   140002785:	0f 1f 00             	nopl   (%rax)
   140002788:	4c 89 d0             	mov    %r10,%rax
   14000278b:	48 c1 e8 20          	shr    $0x20,%rax
   14000278f:	25 ff ff ff 7f       	and    $0x7fffffff,%eax
   140002794:	44 09 d0             	or     %r10d,%eax
   140002797:	74 17                	je     1400027b0 <__pformat_cvt+0xe0>
   140002799:	c7 44 24 44 04 00 00 	movl   $0x4,0x44(%rsp)
   1400027a0:	00 
   1400027a1:	45 31 db             	xor    %r11d,%r11d
   1400027a4:	31 c0                	xor    %eax,%eax
   1400027a6:	e9 7a ff ff ff       	jmp    140002725 <__pformat_cvt+0x55>
   1400027ab:	0f 1f 44 00 00       	nopl   0x0(%rax,%rax,1)
   1400027b0:	c7 44 24 44 03 00 00 	movl   $0x3,0x44(%rsp)
   1400027b7:	00 
   1400027b8:	0f b7 42 08          	movzwl 0x8(%rdx),%eax
   1400027bc:	45 31 db             	xor    %r11d,%r11d
   1400027bf:	e9 5c ff ff ff       	jmp    140002720 <__pformat_cvt+0x50>
   1400027c4:	0f 1f 40 00          	nopl   0x0(%rax)
   1400027c8:	c7 44 24 44 02 00 00 	movl   $0x2,0x44(%rsp)
   1400027cf:	00 
   1400027d0:	41 bb c3 bf ff ff    	mov    $0xffffbfc3,%r11d
   1400027d6:	e9 45 ff ff ff       	jmp    140002720 <__pformat_cvt+0x50>
   1400027db:	0f 1f 44 00 00       	nopl   0x0(%rax,%rax,1)

00000001400027e0 <__pformat_putc>:
   1400027e0:	53                   	push   %rbx
   1400027e1:	48 83 ec 20          	sub    $0x20,%rsp
   1400027e5:	48 89 d3             	mov    %rdx,%rbx
   1400027e8:	8b 52 08             	mov    0x8(%rdx),%edx
   1400027eb:	f6 c6 40             	test   $0x40,%dh
   1400027ee:	75 08                	jne    1400027f8 <__pformat_putc+0x18>
   1400027f0:	8b 43 24             	mov    0x24(%rbx),%eax
   1400027f3:	39 43 28             	cmp    %eax,0x28(%rbx)
   1400027f6:	7e 13                	jle    14000280b <__pformat_putc+0x2b>
   1400027f8:	4c 8b 03             	mov    (%rbx),%r8
   1400027fb:	80 e6 20             	and    $0x20,%dh
   1400027fe:	75 20                	jne    140002820 <__pformat_putc+0x40>
   140002800:	48 63 43 24          	movslq 0x24(%rbx),%rax
   140002804:	41 88 0c 00          	mov    %cl,(%r8,%rax,1)
   140002808:	8b 43 24             	mov    0x24(%rbx),%eax
   14000280b:	83 c0 01             	add    $0x1,%eax
   14000280e:	89 43 24             	mov    %eax,0x24(%rbx)
   140002811:	48 83 c4 20          	add    $0x20,%rsp
   140002815:	5b                   	pop    %rbx
   140002816:	c3                   	ret    
   140002817:	66 0f 1f 84 00 00 00 	nopw   0x0(%rax,%rax,1)
   14000281e:	00 00 
   140002820:	4c 89 c2             	mov    %r8,%rdx
   140002823:	e8 10 4a 00 00       	call   140007238 <fputc>
   140002828:	8b 43 24             	mov    0x24(%rbx),%eax
   14000282b:	83 c0 01             	add    $0x1,%eax
   14000282e:	89 43 24             	mov    %eax,0x24(%rbx)
   140002831:	48 83 c4 20          	add    $0x20,%rsp
   140002835:	5b                   	pop    %rbx
   140002836:	c3                   	ret    
   140002837:	66 0f 1f 84 00 00 00 	nopw   0x0(%rax,%rax,1)
   14000283e:	00 00 

0000000140002840 <__pformat_wputchars>:
   140002840:	41 56                	push   %r14
   140002842:	41 55                	push   %r13
   140002844:	41 54                	push   %r12
   140002846:	55                   	push   %rbp
   140002847:	57                   	push   %rdi
   140002848:	56                   	push   %rsi
   140002849:	53                   	push   %rbx
   14000284a:	48 83 ec 40          	sub    $0x40,%rsp
   14000284e:	4c 8d 74 24 28       	lea    0x28(%rsp),%r14
   140002853:	4c 8d 6c 24 30       	lea    0x30(%rsp),%r13
   140002858:	4c 89 c6             	mov    %r8,%rsi
   14000285b:	49 89 cc             	mov    %rcx,%r12
   14000285e:	89 d5                	mov    %edx,%ebp
   140002860:	4d 89 f0             	mov    %r14,%r8
   140002863:	31 d2                	xor    %edx,%edx
   140002865:	4c 89 e9             	mov    %r13,%rcx
   140002868:	e8 33 4e 00 00       	call   1400076a0 <wcrtomb>
   14000286d:	8b 46 10             	mov    0x10(%rsi),%eax
   140002870:	85 c0                	test   %eax,%eax
   140002872:	78 05                	js     140002879 <__pformat_wputchars+0x39>
   140002874:	39 c5                	cmp    %eax,%ebp
   140002876:	0f 4f e8             	cmovg  %eax,%ebp
   140002879:	8b 46 0c             	mov    0xc(%rsi),%eax
   14000287c:	39 e8                	cmp    %ebp,%eax
   14000287e:	0f 8f 95 00 00 00    	jg     140002919 <__pformat_wputchars+0xd9>
   140002884:	c7 46 0c ff ff ff ff 	movl   $0xffffffff,0xc(%rsi)
   14000288b:	85 ed                	test   %ebp,%ebp
   14000288d:	0f 8e cc 00 00 00    	jle    14000295f <__pformat_wputchars+0x11f>
   140002893:	0f 1f 44 00 00       	nopl   0x0(%rax,%rax,1)
   140002898:	41 0f b7 14 24       	movzwl (%r12),%edx
   14000289d:	4d 89 f0             	mov    %r14,%r8
   1400028a0:	4c 89 e9             	mov    %r13,%rcx
   1400028a3:	49 83 c4 02          	add    $0x2,%r12
   1400028a7:	e8 f4 4d 00 00       	call   1400076a0 <wcrtomb>
   1400028ac:	85 c0                	test   %eax,%eax
   1400028ae:	7e 4d                	jle    1400028fd <__pformat_wputchars+0xbd>
   1400028b0:	83 e8 01             	sub    $0x1,%eax
   1400028b3:	4c 89 eb             	mov    %r13,%rbx
   1400028b6:	49 8d 7c 05 01       	lea    0x1(%r13,%rax,1),%rdi
   1400028bb:	0f 1f 44 00 00       	nopl   0x0(%rax,%rax,1)
   1400028c0:	0f be 0b             	movsbl (%rbx),%ecx
   1400028c3:	48 83 c3 01          	add    $0x1,%rbx
   1400028c7:	48 89 f2             	mov    %rsi,%rdx
   1400028ca:	e8 11 ff ff ff       	call   1400027e0 <__pformat_putc>
   1400028cf:	48 39 fb             	cmp    %rdi,%rbx
   1400028d2:	75 ec                	jne    1400028c0 <__pformat_wputchars+0x80>
   1400028d4:	83 ed 01             	sub    $0x1,%ebp
   1400028d7:	75 bf                	jne    140002898 <__pformat_wputchars+0x58>
   1400028d9:	8b 46 0c             	mov    0xc(%rsi),%eax
   1400028dc:	8d 50 ff             	lea    -0x1(%rax),%edx
   1400028df:	89 56 0c             	mov    %edx,0xc(%rsi)
   1400028e2:	85 c0                	test   %eax,%eax
   1400028e4:	7e 24                	jle    14000290a <__pformat_wputchars+0xca>
   1400028e6:	66 2e 0f 1f 84 00 00 	cs nopw 0x0(%rax,%rax,1)
   1400028ed:	00 00 00 
   1400028f0:	48 89 f2             	mov    %rsi,%rdx
   1400028f3:	b9 20 00 00 00       	mov    $0x20,%ecx
   1400028f8:	e8 e3 fe ff ff       	call   1400027e0 <__pformat_putc>
   1400028fd:	8b 46 0c             	mov    0xc(%rsi),%eax
   140002900:	8d 50 ff             	lea    -0x1(%rax),%edx
   140002903:	89 56 0c             	mov    %edx,0xc(%rsi)
   140002906:	85 c0                	test   %eax,%eax
   140002908:	7f e6                	jg     1400028f0 <__pformat_wputchars+0xb0>
   14000290a:	48 83 c4 40          	add    $0x40,%rsp
   14000290e:	5b                   	pop    %rbx
   14000290f:	5e                   	pop    %rsi
   140002910:	5f                   	pop    %rdi
   140002911:	5d                   	pop    %rbp
   140002912:	41 5c                	pop    %r12
   140002914:	41 5d                	pop    %r13
   140002916:	41 5e                	pop    %r14
   140002918:	c3                   	ret    
   140002919:	29 e8                	sub    %ebp,%eax
   14000291b:	89 46 0c             	mov    %eax,0xc(%rsi)
   14000291e:	f6 46 09 04          	testb  $0x4,0x9(%rsi)
   140002922:	75 2b                	jne    14000294f <__pformat_wputchars+0x10f>
   140002924:	83 e8 01             	sub    $0x1,%eax
   140002927:	89 46 0c             	mov    %eax,0xc(%rsi)
   14000292a:	66 0f 1f 44 00 00    	nopw   0x0(%rax,%rax,1)
   140002930:	48 89 f2             	mov    %rsi,%rdx
   140002933:	b9 20 00 00 00       	mov    $0x20,%ecx
   140002938:	e8 a3 fe ff ff       	call   1400027e0 <__pformat_putc>
   14000293d:	8b 46 0c             	mov    0xc(%rsi),%eax
   140002940:	8d 50 ff             	lea    -0x1(%rax),%edx
   140002943:	89 56 0c             	mov    %edx,0xc(%rsi)
   140002946:	85 c0                	test   %eax,%eax
   140002948:	75 e6                	jne    140002930 <__pformat_wputchars+0xf0>
   14000294a:	e9 3c ff ff ff       	jmp    14000288b <__pformat_wputchars+0x4b>
   14000294f:	85 ed                	test   %ebp,%ebp
   140002951:	0f 8f 41 ff ff ff    	jg     140002898 <__pformat_wputchars+0x58>
   140002957:	83 e8 01             	sub    $0x1,%eax
   14000295a:	89 46 0c             	mov    %eax,0xc(%rsi)
   14000295d:	eb 91                	jmp    1400028f0 <__pformat_wputchars+0xb0>
   14000295f:	c7 46 0c fe ff ff ff 	movl   $0xfffffffe,0xc(%rsi)
   140002966:	eb a2                	jmp    14000290a <__pformat_wputchars+0xca>
   140002968:	0f 1f 84 00 00 00 00 	nopl   0x0(%rax,%rax,1)
   14000296f:	00 

0000000140002970 <__pformat_putchars>:
   140002970:	57                   	push   %rdi
   140002971:	56                   	push   %rsi
   140002972:	53                   	push   %rbx
   140002973:	48 83 ec 20          	sub    $0x20,%rsp
   140002977:	41 8b 40 10          	mov    0x10(%r8),%eax
   14000297b:	48 89 ce             	mov    %rcx,%rsi
   14000297e:	89 d7                	mov    %edx,%edi
   140002980:	4c 89 c3             	mov    %r8,%rbx
   140002983:	85 c0                	test   %eax,%eax
   140002985:	78 05                	js     14000298c <__pformat_putchars+0x1c>
   140002987:	39 c2                	cmp    %eax,%edx
   140002989:	0f 4f f8             	cmovg  %eax,%edi
   14000298c:	8b 43 0c             	mov    0xc(%rbx),%eax
   14000298f:	39 f8                	cmp    %edi,%eax
   140002991:	7f 6d                	jg     140002a00 <__pformat_putchars+0x90>
   140002993:	c7 43 0c ff ff ff ff 	movl   $0xffffffff,0xc(%rbx)
   14000299a:	85 ff                	test   %edi,%edi
   14000299c:	0f 84 ae 00 00 00    	je     140002a50 <__pformat_putchars+0xe0>
   1400029a2:	8d 47 ff             	lea    -0x1(%rdi),%eax
   1400029a5:	48 8d 7c 06 01       	lea    0x1(%rsi,%rax,1),%rdi
   1400029aa:	66 0f 1f 44 00 00    	nopw   0x0(%rax,%rax,1)
   1400029b0:	0f be 0e             	movsbl (%rsi),%ecx
   1400029b3:	48 83 c6 01          	add    $0x1,%rsi
   1400029b7:	48 89 da             	mov    %rbx,%rdx
   1400029ba:	e8 21 fe ff ff       	call   1400027e0 <__pformat_putc>
   1400029bf:	48 39 f7             	cmp    %rsi,%rdi
   1400029c2:	75 ec                	jne    1400029b0 <__pformat_putchars+0x40>
   1400029c4:	8b 43 0c             	mov    0xc(%rbx),%eax
   1400029c7:	8d 50 ff             	lea    -0x1(%rax),%edx
   1400029ca:	89 53 0c             	mov    %edx,0xc(%rbx)
   1400029cd:	85 c0                	test   %eax,%eax
   1400029cf:	7e 21                	jle    1400029f2 <__pformat_putchars+0x82>
   1400029d1:	0f 1f 80 00 00 00 00 	nopl   0x0(%rax)
   1400029d8:	48 89 da             	mov    %rbx,%rdx
   1400029db:	b9 20 00 00 00       	mov    $0x20,%ecx
   1400029e0:	e8 fb fd ff ff       	call   1400027e0 <__pformat_putc>
   1400029e5:	8b 43 0c             	mov    0xc(%rbx),%eax
   1400029e8:	8d 50 ff             	lea    -0x1(%rax),%edx
   1400029eb:	89 53 0c             	mov    %edx,0xc(%rbx)
   1400029ee:	85 c0                	test   %eax,%eax
   1400029f0:	7f e6                	jg     1400029d8 <__pformat_putchars+0x68>
   1400029f2:	48 83 c4 20          	add    $0x20,%rsp
   1400029f6:	5b                   	pop    %rbx
   1400029f7:	5e                   	pop    %rsi
   1400029f8:	5f                   	pop    %rdi
   1400029f9:	c3                   	ret    
   1400029fa:	66 0f 1f 44 00 00    	nopw   0x0(%rax,%rax,1)
   140002a00:	29 f8                	sub    %edi,%eax
   140002a02:	89 43 0c             	mov    %eax,0xc(%rbx)
   140002a05:	f6 43 09 04          	testb  $0x4,0x9(%rbx)
   140002a09:	75 35                	jne    140002a40 <__pformat_putchars+0xd0>
   140002a0b:	83 e8 01             	sub    $0x1,%eax
   140002a0e:	89 43 0c             	mov    %eax,0xc(%rbx)
   140002a11:	0f 1f 80 00 00 00 00 	nopl   0x0(%rax)
   140002a18:	48 89 da             	mov    %rbx,%rdx
   140002a1b:	b9 20 00 00 00       	mov    $0x20,%ecx
   140002a20:	e8 bb fd ff ff       	call   1400027e0 <__pformat_putc>
   140002a25:	8b 43 0c             	mov    0xc(%rbx),%eax
   140002a28:	8d 50 ff             	lea    -0x1(%rax),%edx
   140002a2b:	89 53 0c             	mov    %edx,0xc(%rbx)
   140002a2e:	85 c0                	test   %eax,%eax
   140002a30:	75 e6                	jne    140002a18 <__pformat_putchars+0xa8>
   140002a32:	e9 63 ff ff ff       	jmp    14000299a <__pformat_putchars+0x2a>
   140002a37:	66 0f 1f 84 00 00 00 	nopw   0x0(%rax,%rax,1)
   140002a3e:	00 00 
   140002a40:	85 ff                	test   %edi,%edi
   140002a42:	0f 85 5a ff ff ff    	jne    1400029a2 <__pformat_putchars+0x32>
   140002a48:	83 e8 01             	sub    $0x1,%eax
   140002a4b:	89 43 0c             	mov    %eax,0xc(%rbx)
   140002a4e:	eb 88                	jmp    1400029d8 <__pformat_putchars+0x68>
   140002a50:	c7 43 0c fe ff ff ff 	movl   $0xfffffffe,0xc(%rbx)
   140002a57:	eb 99                	jmp    1400029f2 <__pformat_putchars+0x82>
   140002a59:	0f 1f 80 00 00 00 00 	nopl   0x0(%rax)

0000000140002a60 <__pformat_puts>:
   140002a60:	41 54                	push   %r12
   140002a62:	53                   	push   %rbx
   140002a63:	48 83 ec 28          	sub    $0x28,%rsp
   140002a67:	48 8d 05 92 68 00 00 	lea    0x6892(%rip),%rax        # 140009300 <.rdata>
   140002a6e:	49 89 cc             	mov    %rcx,%r12
   140002a71:	48 85 c9             	test   %rcx,%rcx
   140002a74:	48 89 d3             	mov    %rdx,%rbx
   140002a77:	48 63 52 10          	movslq 0x10(%rdx),%rdx
   140002a7b:	4c 0f 44 e0          	cmove  %rax,%r12
   140002a7f:	4c 89 e1             	mov    %r12,%rcx
   140002a82:	85 d2                	test   %edx,%edx
   140002a84:	78 1a                	js     140002aa0 <__pformat_puts+0x40>
   140002a86:	e8 f5 46 00 00       	call   140007180 <strnlen>
   140002a8b:	48 89 c2             	mov    %rax,%rdx
   140002a8e:	49 89 d8             	mov    %rbx,%r8
   140002a91:	4c 89 e1             	mov    %r12,%rcx
   140002a94:	48 83 c4 28          	add    $0x28,%rsp
   140002a98:	5b                   	pop    %rbx
   140002a99:	41 5c                	pop    %r12
   140002a9b:	e9 d0 fe ff ff       	jmp    140002970 <__pformat_putchars>
   140002aa0:	e8 53 47 00 00       	call   1400071f8 <strlen>
   140002aa5:	eb e4                	jmp    140002a8b <__pformat_puts+0x2b>
   140002aa7:	66 0f 1f 84 00 00 00 	nopw   0x0(%rax,%rax,1)
   140002aae:	00 00 

0000000140002ab0 <__pformat_emit_inf_or_nan>:
   140002ab0:	48 83 ec 38          	sub    $0x38,%rsp
   140002ab4:	45 8b 50 08          	mov    0x8(%r8),%r10d
   140002ab8:	41 c7 40 10 ff ff ff 	movl   $0xffffffff,0x10(%r8)
   140002abf:	ff 
   140002ac0:	85 c9                	test   %ecx,%ecx
   140002ac2:	74 4c                	je     140002b10 <__pformat_emit_inf_or_nan+0x60>
   140002ac4:	c6 44 24 2c 2d       	movb   $0x2d,0x2c(%rsp)
   140002ac9:	4c 8d 4c 24 2d       	lea    0x2d(%rsp),%r9
   140002ace:	4c 8d 5c 24 2c       	lea    0x2c(%rsp),%r11
   140002ad3:	41 83 e2 20          	and    $0x20,%r10d
   140002ad7:	31 c9                	xor    %ecx,%ecx
   140002ad9:	0f b6 04 0a          	movzbl (%rdx,%rcx,1),%eax
   140002add:	83 e0 df             	and    $0xffffffdf,%eax
   140002ae0:	44 09 d0             	or     %r10d,%eax
   140002ae3:	41 88 04 09          	mov    %al,(%r9,%rcx,1)
   140002ae7:	48 83 c1 01          	add    $0x1,%rcx
   140002aeb:	48 83 f9 03          	cmp    $0x3,%rcx
   140002aef:	75 e8                	jne    140002ad9 <__pformat_emit_inf_or_nan+0x29>
   140002af1:	49 8d 51 03          	lea    0x3(%r9),%rdx
   140002af5:	4c 89 d9             	mov    %r11,%rcx
   140002af8:	4c 29 da             	sub    %r11,%rdx
   140002afb:	e8 70 fe ff ff       	call   140002970 <__pformat_putchars>
   140002b00:	90                   	nop
   140002b01:	48 83 c4 38          	add    $0x38,%rsp
   140002b05:	c3                   	ret    
   140002b06:	66 2e 0f 1f 84 00 00 	cs nopw 0x0(%rax,%rax,1)
   140002b0d:	00 00 00 
   140002b10:	41 f7 c2 00 01 00 00 	test   $0x100,%r10d
   140002b17:	74 17                	je     140002b30 <__pformat_emit_inf_or_nan+0x80>
   140002b19:	c6 44 24 2c 2b       	movb   $0x2b,0x2c(%rsp)
   140002b1e:	4c 8d 4c 24 2d       	lea    0x2d(%rsp),%r9
   140002b23:	4c 8d 5c 24 2c       	lea    0x2c(%rsp),%r11
   140002b28:	eb a9                	jmp    140002ad3 <__pformat_emit_inf_or_nan+0x23>
   140002b2a:	66 0f 1f 44 00 00    	nopw   0x0(%rax,%rax,1)
   140002b30:	41 f6 c2 40          	test   $0x40,%r10b
   140002b34:	74 1a                	je     140002b50 <__pformat_emit_inf_or_nan+0xa0>
   140002b36:	c6 44 24 2c 20       	movb   $0x20,0x2c(%rsp)
   140002b3b:	4c 8d 4c 24 2d       	lea    0x2d(%rsp),%r9
   140002b40:	4c 8d 5c 24 2c       	lea    0x2c(%rsp),%r11
   140002b45:	eb 8c                	jmp    140002ad3 <__pformat_emit_inf_or_nan+0x23>
   140002b47:	66 0f 1f 84 00 00 00 	nopw   0x0(%rax,%rax,1)
   140002b4e:	00 00 
   140002b50:	4c 8d 5c 24 2c       	lea    0x2c(%rsp),%r11
   140002b55:	4d 89 d9             	mov    %r11,%r9
   140002b58:	e9 76 ff ff ff       	jmp    140002ad3 <__pformat_emit_inf_or_nan+0x23>
   140002b5d:	0f 1f 00             	nopl   (%rax)

0000000140002b60 <__pformat_emit_radix_point>:
   140002b60:	55                   	push   %rbp
   140002b61:	41 54                	push   %r12
   140002b63:	57                   	push   %rdi
   140002b64:	56                   	push   %rsi
   140002b65:	53                   	push   %rbx
   140002b66:	48 89 e5             	mov    %rsp,%rbp
   140002b69:	48 83 ec 30          	sub    $0x30,%rsp
   140002b6d:	83 79 14 fd          	cmpl   $0xfffffffd,0x14(%rcx)
   140002b71:	49 89 cc             	mov    %rcx,%r12
   140002b74:	0f 84 96 00 00 00    	je     140002c10 <__pformat_emit_radix_point+0xb0>
   140002b7a:	0f b7 51 18          	movzwl 0x18(%rcx),%edx
   140002b7e:	66 85 d2             	test   %dx,%dx
   140002b81:	74 6d                	je     140002bf0 <__pformat_emit_radix_point+0x90>
   140002b83:	49 63 44 24 14       	movslq 0x14(%r12),%rax
   140002b88:	48 89 e6             	mov    %rsp,%rsi
   140002b8b:	48 83 c0 0f          	add    $0xf,%rax
   140002b8f:	48 83 e0 f0          	and    $0xfffffffffffffff0,%rax
   140002b93:	e8 a8 fa ff ff       	call   140002640 <___chkstk_ms>
   140002b98:	48 29 c4             	sub    %rax,%rsp
   140002b9b:	4c 8d 45 f8          	lea    -0x8(%rbp),%r8
   140002b9f:	48 c7 45 f8 00 00 00 	movq   $0x0,-0x8(%rbp)
   140002ba6:	00 
   140002ba7:	48 8d 5c 24 20       	lea    0x20(%rsp),%rbx
   140002bac:	48 89 d9             	mov    %rbx,%rcx
   140002baf:	e8 ec 4a 00 00       	call   1400076a0 <wcrtomb>
   140002bb4:	85 c0                	test   %eax,%eax
   140002bb6:	0f 8e 94 00 00 00    	jle    140002c50 <__pformat_emit_radix_point+0xf0>
   140002bbc:	83 e8 01             	sub    $0x1,%eax
   140002bbf:	48 8d 7c 03 01       	lea    0x1(%rbx,%rax,1),%rdi
   140002bc4:	0f 1f 40 00          	nopl   0x0(%rax)
   140002bc8:	0f be 0b             	movsbl (%rbx),%ecx
   140002bcb:	48 83 c3 01          	add    $0x1,%rbx
   140002bcf:	4c 89 e2             	mov    %r12,%rdx
   140002bd2:	e8 09 fc ff ff       	call   1400027e0 <__pformat_putc>
   140002bd7:	48 39 fb             	cmp    %rdi,%rbx
   140002bda:	75 ec                	jne    140002bc8 <__pformat_emit_radix_point+0x68>
   140002bdc:	48 89 f4             	mov    %rsi,%rsp
   140002bdf:	48 89 ec             	mov    %rbp,%rsp
   140002be2:	5b                   	pop    %rbx
   140002be3:	5e                   	pop    %rsi
   140002be4:	5f                   	pop    %rdi
   140002be5:	41 5c                	pop    %r12
   140002be7:	5d                   	pop    %rbp
   140002be8:	c3                   	ret    
   140002be9:	0f 1f 80 00 00 00 00 	nopl   0x0(%rax)
   140002bf0:	4c 89 e2             	mov    %r12,%rdx
   140002bf3:	b9 2e 00 00 00       	mov    $0x2e,%ecx
   140002bf8:	e8 e3 fb ff ff       	call   1400027e0 <__pformat_putc>
   140002bfd:	90                   	nop
   140002bfe:	48 89 ec             	mov    %rbp,%rsp
   140002c01:	5b                   	pop    %rbx
   140002c02:	5e                   	pop    %rsi
   140002c03:	5f                   	pop    %rdi
   140002c04:	41 5c                	pop    %r12
   140002c06:	5d                   	pop    %rbp
   140002c07:	c3                   	ret    
   140002c08:	0f 1f 84 00 00 00 00 	nopl   0x0(%rax,%rax,1)
   140002c0f:	00 
   140002c10:	48 c7 45 f8 00 00 00 	movq   $0x0,-0x8(%rbp)
   140002c17:	00 
   140002c18:	48 8d 5d f8          	lea    -0x8(%rbp),%rbx
   140002c1c:	e8 ff 45 00 00       	call   140007220 <localeconv>
   140002c21:	48 8d 4d f6          	lea    -0xa(%rbp),%rcx
   140002c25:	49 89 d9             	mov    %rbx,%r9
   140002c28:	41 b8 10 00 00 00    	mov    $0x10,%r8d
   140002c2e:	48 8b 10             	mov    (%rax),%rdx
   140002c31:	e8 fa 47 00 00       	call   140007430 <mbrtowc>
   140002c36:	85 c0                	test   %eax,%eax
   140002c38:	7e 2e                	jle    140002c68 <__pformat_emit_radix_point+0x108>
   140002c3a:	0f b7 55 f6          	movzwl -0xa(%rbp),%edx
   140002c3e:	66 41 89 54 24 18    	mov    %dx,0x18(%r12)
   140002c44:	41 89 44 24 14       	mov    %eax,0x14(%r12)
   140002c49:	e9 30 ff ff ff       	jmp    140002b7e <__pformat_emit_radix_point+0x1e>
   140002c4e:	66 90                	xchg   %ax,%ax
   140002c50:	4c 89 e2             	mov    %r12,%rdx
   140002c53:	b9 2e 00 00 00       	mov    $0x2e,%ecx
   140002c58:	e8 83 fb ff ff       	call   1400027e0 <__pformat_putc>
   140002c5d:	e9 7a ff ff ff       	jmp    140002bdc <__pformat_emit_radix_point+0x7c>
   140002c62:	66 0f 1f 44 00 00    	nopw   0x0(%rax,%rax,1)
   140002c68:	41 0f b7 54 24 18    	movzwl 0x18(%r12),%edx
   140002c6e:	eb d4                	jmp    140002c44 <__pformat_emit_radix_point+0xe4>

0000000140002c70 <__pformat_emit_float>:
   140002c70:	55                   	push   %rbp
   140002c71:	57                   	push   %rdi
   140002c72:	56                   	push   %rsi
   140002c73:	53                   	push   %rbx
   140002c74:	48 83 ec 28          	sub    $0x28,%rsp
   140002c78:	41 8b 41 0c          	mov    0xc(%r9),%eax
   140002c7c:	89 cd                	mov    %ecx,%ebp
   140002c7e:	48 89 d7             	mov    %rdx,%rdi
   140002c81:	44 89 c6             	mov    %r8d,%esi
   140002c84:	4c 89 cb             	mov    %r9,%rbx
   140002c87:	45 85 c0             	test   %r8d,%r8d
   140002c8a:	0f 8e 10 02 00 00    	jle    140002ea0 <__pformat_emit_float+0x230>
   140002c90:	41 39 c0             	cmp    %eax,%r8d
   140002c93:	0f 8e f7 00 00 00    	jle    140002d90 <__pformat_emit_float+0x120>
   140002c99:	c7 43 0c ff ff ff ff 	movl   $0xffffffff,0xc(%rbx)
   140002ca0:	b8 ff ff ff ff       	mov    $0xffffffff,%eax
   140002ca5:	f6 43 09 10          	testb  $0x10,0x9(%rbx)
   140002ca9:	74 4d                	je     140002cf8 <__pformat_emit_float+0x88>
   140002cab:	66 83 7b 20 00       	cmpw   $0x0,0x20(%rbx)
   140002cb0:	0f 84 0a 01 00 00    	je     140002dc0 <__pformat_emit_float+0x150>
   140002cb6:	ba ab aa aa aa       	mov    $0xaaaaaaab,%edx
   140002cbb:	44 8d 46 02          	lea    0x2(%rsi),%r8d
   140002cbf:	4c 0f af c2          	imul   %rdx,%r8
   140002cc3:	89 c2                	mov    %eax,%edx
   140002cc5:	49 c1 e8 21          	shr    $0x21,%r8
   140002cc9:	41 8d 48 ff          	lea    -0x1(%r8),%ecx
   140002ccd:	29 c1                	sub    %eax,%ecx
   140002ccf:	41 83 f8 01          	cmp    $0x1,%r8d
   140002cd3:	75 1b                	jne    140002cf0 <__pformat_emit_float+0x80>
   140002cd5:	e9 e6 00 00 00       	jmp    140002dc0 <__pformat_emit_float+0x150>
   140002cda:	66 0f 1f 44 00 00    	nopw   0x0(%rax,%rax,1)
   140002ce0:	83 ea 01             	sub    $0x1,%edx
   140002ce3:	89 c8                	mov    %ecx,%eax
   140002ce5:	01 d0                	add    %edx,%eax
   140002ce7:	89 53 0c             	mov    %edx,0xc(%rbx)
   140002cea:	0f 84 2a 03 00 00    	je     14000301a <__pformat_emit_float+0x3aa>
   140002cf0:	85 d2                	test   %edx,%edx
   140002cf2:	7f ec                	jg     140002ce0 <__pformat_emit_float+0x70>
   140002cf4:	0f 1f 40 00          	nopl   0x0(%rax)
   140002cf8:	85 ed                	test   %ebp,%ebp
   140002cfa:	0f 85 22 01 00 00    	jne    140002e22 <__pformat_emit_float+0x1b2>
   140002d00:	8b 53 08             	mov    0x8(%rbx),%edx
   140002d03:	f6 c6 01             	test   $0x1,%dh
   140002d06:	0f 85 84 02 00 00    	jne    140002f90 <__pformat_emit_float+0x320>
   140002d0c:	83 e2 40             	and    $0x40,%edx
   140002d0f:	0f 85 f3 02 00 00    	jne    140003008 <__pformat_emit_float+0x398>
   140002d15:	8b 43 0c             	mov    0xc(%rbx),%eax
   140002d18:	85 c0                	test   %eax,%eax
   140002d1a:	7e 15                	jle    140002d31 <__pformat_emit_float+0xc1>
   140002d1c:	8b 53 08             	mov    0x8(%rbx),%edx
   140002d1f:	81 e2 00 06 00 00    	and    $0x600,%edx
   140002d25:	81 fa 00 02 00 00    	cmp    $0x200,%edx
   140002d2b:	0f 84 77 02 00 00    	je     140002fa8 <__pformat_emit_float+0x338>
   140002d31:	48 8d 6b 20          	lea    0x20(%rbx),%rbp
   140002d35:	85 f6                	test   %esi,%esi
   140002d37:	0f 8e bb 01 00 00    	jle    140002ef8 <__pformat_emit_float+0x288>
   140002d3d:	0f 1f 00             	nopl   (%rax)
   140002d40:	0f b6 07             	movzbl (%rdi),%eax
   140002d43:	b9 30 00 00 00       	mov    $0x30,%ecx
   140002d48:	84 c0                	test   %al,%al
   140002d4a:	74 07                	je     140002d53 <__pformat_emit_float+0xe3>
   140002d4c:	48 83 c7 01          	add    $0x1,%rdi
   140002d50:	0f be c8             	movsbl %al,%ecx
   140002d53:	48 89 da             	mov    %rbx,%rdx
   140002d56:	e8 85 fa ff ff       	call   1400027e0 <__pformat_putc>
   140002d5b:	83 ee 01             	sub    $0x1,%esi
   140002d5e:	0f 84 d4 00 00 00    	je     140002e38 <__pformat_emit_float+0x1c8>
   140002d64:	f6 43 09 10          	testb  $0x10,0x9(%rbx)
   140002d68:	74 d6                	je     140002d40 <__pformat_emit_float+0xd0>
   140002d6a:	66 83 7b 20 00       	cmpw   $0x0,0x20(%rbx)
   140002d6f:	74 cf                	je     140002d40 <__pformat_emit_float+0xd0>
   140002d71:	69 c6 ab aa aa aa    	imul   $0xaaaaaaab,%esi,%eax
   140002d77:	3d 55 55 55 55       	cmp    $0x55555555,%eax
   140002d7c:	77 c2                	ja     140002d40 <__pformat_emit_float+0xd0>
   140002d7e:	49 89 d8             	mov    %rbx,%r8
   140002d81:	ba 01 00 00 00       	mov    $0x1,%edx
   140002d86:	48 89 e9             	mov    %rbp,%rcx
   140002d89:	e8 b2 fa ff ff       	call   140002840 <__pformat_wputchars>
   140002d8e:	eb b0                	jmp    140002d40 <__pformat_emit_float+0xd0>
   140002d90:	41 8b 51 10          	mov    0x10(%r9),%edx
   140002d94:	44 29 c0             	sub    %r8d,%eax
   140002d97:	39 d0                	cmp    %edx,%eax
   140002d99:	0f 8e fa fe ff ff    	jle    140002c99 <__pformat_emit_float+0x29>
   140002d9f:	29 d0                	sub    %edx,%eax
   140002da1:	89 43 0c             	mov    %eax,0xc(%rbx)
   140002da4:	85 d2                	test   %edx,%edx
   140002da6:	0f 8e b4 01 00 00    	jle    140002f60 <__pformat_emit_float+0x2f0>
   140002dac:	83 e8 01             	sub    $0x1,%eax
   140002daf:	89 43 0c             	mov    %eax,0xc(%rbx)
   140002db2:	85 f6                	test   %esi,%esi
   140002db4:	7e 0a                	jle    140002dc0 <__pformat_emit_float+0x150>
   140002db6:	f6 43 09 10          	testb  $0x10,0x9(%rbx)
   140002dba:	0f 85 eb fe ff ff    	jne    140002cab <__pformat_emit_float+0x3b>
   140002dc0:	85 c0                	test   %eax,%eax
   140002dc2:	0f 8e 30 ff ff ff    	jle    140002cf8 <__pformat_emit_float+0x88>
   140002dc8:	85 ed                	test   %ebp,%ebp
   140002dca:	0f 85 f8 00 00 00    	jne    140002ec8 <__pformat_emit_float+0x258>
   140002dd0:	8b 53 08             	mov    0x8(%rbx),%edx
   140002dd3:	f7 c2 c0 01 00 00    	test   $0x1c0,%edx
   140002dd9:	0f 84 f1 01 00 00    	je     140002fd0 <__pformat_emit_float+0x360>
   140002ddf:	83 e8 01             	sub    $0x1,%eax
   140002de2:	89 43 0c             	mov    %eax,0xc(%rbx)
   140002de5:	0f 84 18 ff ff ff    	je     140002d03 <__pformat_emit_float+0x93>
   140002deb:	f6 c6 06             	test   $0x6,%dh
   140002dee:	0f 85 0f ff ff ff    	jne    140002d03 <__pformat_emit_float+0x93>
   140002df4:	83 e8 01             	sub    $0x1,%eax
   140002df7:	89 43 0c             	mov    %eax,0xc(%rbx)
   140002dfa:	66 0f 1f 44 00 00    	nopw   0x0(%rax,%rax,1)
   140002e00:	48 89 da             	mov    %rbx,%rdx
   140002e03:	b9 20 00 00 00       	mov    $0x20,%ecx
   140002e08:	e8 d3 f9 ff ff       	call   1400027e0 <__pformat_putc>
   140002e0d:	8b 43 0c             	mov    0xc(%rbx),%eax
   140002e10:	8d 50 ff             	lea    -0x1(%rax),%edx
   140002e13:	89 53 0c             	mov    %edx,0xc(%rbx)
   140002e16:	85 c0                	test   %eax,%eax
   140002e18:	7f e6                	jg     140002e00 <__pformat_emit_float+0x190>
   140002e1a:	85 ed                	test   %ebp,%ebp
   140002e1c:	0f 84 de fe ff ff    	je     140002d00 <__pformat_emit_float+0x90>
   140002e22:	48 89 da             	mov    %rbx,%rdx
   140002e25:	b9 2d 00 00 00       	mov    $0x2d,%ecx
   140002e2a:	e8 b1 f9 ff ff       	call   1400027e0 <__pformat_putc>
   140002e2f:	e9 e1 fe ff ff       	jmp    140002d15 <__pformat_emit_float+0xa5>
   140002e34:	0f 1f 40 00          	nopl   0x0(%rax)
   140002e38:	8b 43 10             	mov    0x10(%rbx),%eax
   140002e3b:	85 c0                	test   %eax,%eax
   140002e3d:	7f 19                	jg     140002e58 <__pformat_emit_float+0x1e8>
   140002e3f:	f6 43 09 08          	testb  $0x8,0x9(%rbx)
   140002e43:	75 13                	jne    140002e58 <__pformat_emit_float+0x1e8>
   140002e45:	83 e8 01             	sub    $0x1,%eax
   140002e48:	89 43 10             	mov    %eax,0x10(%rbx)
   140002e4b:	48 83 c4 28          	add    $0x28,%rsp
   140002e4f:	5b                   	pop    %rbx
   140002e50:	5e                   	pop    %rsi
   140002e51:	5f                   	pop    %rdi
   140002e52:	5d                   	pop    %rbp
   140002e53:	c3                   	ret    
   140002e54:	0f 1f 40 00          	nopl   0x0(%rax)
   140002e58:	48 89 d9             	mov    %rbx,%rcx
   140002e5b:	e8 00 fd ff ff       	call   140002b60 <__pformat_emit_radix_point>
   140002e60:	eb 21                	jmp    140002e83 <__pformat_emit_float+0x213>
   140002e62:	66 0f 1f 44 00 00    	nopw   0x0(%rax,%rax,1)
   140002e68:	0f b6 07             	movzbl (%rdi),%eax
   140002e6b:	b9 30 00 00 00       	mov    $0x30,%ecx
   140002e70:	84 c0                	test   %al,%al
   140002e72:	74 07                	je     140002e7b <__pformat_emit_float+0x20b>
   140002e74:	48 83 c7 01          	add    $0x1,%rdi
   140002e78:	0f be c8             	movsbl %al,%ecx
   140002e7b:	48 89 da             	mov    %rbx,%rdx
   140002e7e:	e8 5d f9 ff ff       	call   1400027e0 <__pformat_putc>
   140002e83:	8b 43 10             	mov    0x10(%rbx),%eax
   140002e86:	8d 50 ff             	lea    -0x1(%rax),%edx
   140002e89:	89 53 10             	mov    %edx,0x10(%rbx)
   140002e8c:	85 c0                	test   %eax,%eax
   140002e8e:	7f d8                	jg     140002e68 <__pformat_emit_float+0x1f8>
   140002e90:	48 83 c4 28          	add    $0x28,%rsp
   140002e94:	5b                   	pop    %rbx
   140002e95:	5e                   	pop    %rsi
   140002e96:	5f                   	pop    %rdi
   140002e97:	5d                   	pop    %rbp
   140002e98:	c3                   	ret    
   140002e99:	0f 1f 80 00 00 00 00 	nopl   0x0(%rax)
   140002ea0:	85 c0                	test   %eax,%eax
   140002ea2:	0f 8e 48 01 00 00    	jle    140002ff0 <__pformat_emit_float+0x380>
   140002ea8:	83 e8 01             	sub    $0x1,%eax
   140002eab:	8b 53 10             	mov    0x10(%rbx),%edx
   140002eae:	39 d0                	cmp    %edx,%eax
   140002eb0:	0f 8f e9 fe ff ff    	jg     140002d9f <__pformat_emit_float+0x12f>
   140002eb6:	c7 43 0c ff ff ff ff 	movl   $0xffffffff,0xc(%rbx)
   140002ebd:	e9 36 fe ff ff       	jmp    140002cf8 <__pformat_emit_float+0x88>
   140002ec2:	66 0f 1f 44 00 00    	nopw   0x0(%rax,%rax,1)
   140002ec8:	83 e8 01             	sub    $0x1,%eax
   140002ecb:	89 43 0c             	mov    %eax,0xc(%rbx)
   140002ece:	0f 84 4e ff ff ff    	je     140002e22 <__pformat_emit_float+0x1b2>
   140002ed4:	f7 43 08 00 06 00 00 	testl  $0x600,0x8(%rbx)
   140002edb:	0f 84 13 ff ff ff    	je     140002df4 <__pformat_emit_float+0x184>
   140002ee1:	48 89 da             	mov    %rbx,%rdx
   140002ee4:	b9 2d 00 00 00       	mov    $0x2d,%ecx
   140002ee9:	e8 f2 f8 ff ff       	call   1400027e0 <__pformat_putc>
   140002eee:	e9 22 fe ff ff       	jmp    140002d15 <__pformat_emit_float+0xa5>
   140002ef3:	0f 1f 44 00 00       	nopl   0x0(%rax,%rax,1)
   140002ef8:	48 89 da             	mov    %rbx,%rdx
   140002efb:	b9 30 00 00 00       	mov    $0x30,%ecx
   140002f00:	e8 db f8 ff ff       	call   1400027e0 <__pformat_putc>
   140002f05:	8b 43 10             	mov    0x10(%rbx),%eax
   140002f08:	85 c0                	test   %eax,%eax
   140002f0a:	7f 14                	jg     140002f20 <__pformat_emit_float+0x2b0>
   140002f0c:	f6 43 09 08          	testb  $0x8,0x9(%rbx)
   140002f10:	75 0e                	jne    140002f20 <__pformat_emit_float+0x2b0>
   140002f12:	85 f6                	test   %esi,%esi
   140002f14:	75 1d                	jne    140002f33 <__pformat_emit_float+0x2c3>
   140002f16:	e9 2a ff ff ff       	jmp    140002e45 <__pformat_emit_float+0x1d5>
   140002f1b:	0f 1f 44 00 00       	nopl   0x0(%rax,%rax,1)
   140002f20:	48 89 d9             	mov    %rbx,%rcx
   140002f23:	e8 38 fc ff ff       	call   140002b60 <__pformat_emit_radix_point>
   140002f28:	85 f6                	test   %esi,%esi
   140002f2a:	0f 84 53 ff ff ff    	je     140002e83 <__pformat_emit_float+0x213>
   140002f30:	8b 43 10             	mov    0x10(%rbx),%eax
   140002f33:	01 f0                	add    %esi,%eax
   140002f35:	89 43 10             	mov    %eax,0x10(%rbx)
   140002f38:	0f 1f 84 00 00 00 00 	nopl   0x0(%rax,%rax,1)
   140002f3f:	00 
   140002f40:	48 89 da             	mov    %rbx,%rdx
   140002f43:	b9 30 00 00 00       	mov    $0x30,%ecx
   140002f48:	e8 93 f8 ff ff       	call   1400027e0 <__pformat_putc>
   140002f4d:	83 c6 01             	add    $0x1,%esi
   140002f50:	75 ee                	jne    140002f40 <__pformat_emit_float+0x2d0>
   140002f52:	e9 2c ff ff ff       	jmp    140002e83 <__pformat_emit_float+0x213>
   140002f57:	66 0f 1f 84 00 00 00 	nopw   0x0(%rax,%rax,1)
   140002f5e:	00 00 
   140002f60:	8b 53 08             	mov    0x8(%rbx),%edx
   140002f63:	f6 c6 08             	test   $0x8,%dh
   140002f66:	0f 85 40 fe ff ff    	jne    140002dac <__pformat_emit_float+0x13c>
   140002f6c:	85 f6                	test   %esi,%esi
   140002f6e:	0f 8e 54 fe ff ff    	jle    140002dc8 <__pformat_emit_float+0x158>
   140002f74:	80 e6 10             	and    $0x10,%dh
   140002f77:	0f 84 4b fe ff ff    	je     140002dc8 <__pformat_emit_float+0x158>
   140002f7d:	66 83 7b 20 00       	cmpw   $0x0,0x20(%rbx)
   140002f82:	0f 84 40 fe ff ff    	je     140002dc8 <__pformat_emit_float+0x158>
   140002f88:	e9 29 fd ff ff       	jmp    140002cb6 <__pformat_emit_float+0x46>
   140002f8d:	0f 1f 00             	nopl   (%rax)
   140002f90:	48 89 da             	mov    %rbx,%rdx
   140002f93:	b9 2b 00 00 00       	mov    $0x2b,%ecx
   140002f98:	e8 43 f8 ff ff       	call   1400027e0 <__pformat_putc>
   140002f9d:	e9 73 fd ff ff       	jmp    140002d15 <__pformat_emit_float+0xa5>
   140002fa2:	66 0f 1f 44 00 00    	nopw   0x0(%rax,%rax,1)
   140002fa8:	83 e8 01             	sub    $0x1,%eax
   140002fab:	89 43 0c             	mov    %eax,0xc(%rbx)
   140002fae:	66 90                	xchg   %ax,%ax
   140002fb0:	48 89 da             	mov    %rbx,%rdx
   140002fb3:	b9 30 00 00 00       	mov    $0x30,%ecx
   140002fb8:	e8 23 f8 ff ff       	call   1400027e0 <__pformat_putc>
   140002fbd:	8b 43 0c             	mov    0xc(%rbx),%eax
   140002fc0:	8d 50 ff             	lea    -0x1(%rax),%edx
   140002fc3:	89 53 0c             	mov    %edx,0xc(%rbx)
   140002fc6:	85 c0                	test   %eax,%eax
   140002fc8:	7f e6                	jg     140002fb0 <__pformat_emit_float+0x340>
   140002fca:	e9 62 fd ff ff       	jmp    140002d31 <__pformat_emit_float+0xc1>
   140002fcf:	90                   	nop
   140002fd0:	f6 c6 06             	test   $0x6,%dh
   140002fd3:	0f 85 2a fd ff ff    	jne    140002d03 <__pformat_emit_float+0x93>
   140002fd9:	8b 43 0c             	mov    0xc(%rbx),%eax
   140002fdc:	8d 48 ff             	lea    -0x1(%rax),%ecx
   140002fdf:	89 4b 0c             	mov    %ecx,0xc(%rbx)
   140002fe2:	85 c0                	test   %eax,%eax
   140002fe4:	0f 8e 19 fd ff ff    	jle    140002d03 <__pformat_emit_float+0x93>
   140002fea:	e9 11 fe ff ff       	jmp    140002e00 <__pformat_emit_float+0x190>
   140002fef:	90                   	nop
   140002ff0:	0f 84 b5 fe ff ff    	je     140002eab <__pformat_emit_float+0x23b>
   140002ff6:	c7 43 0c ff ff ff ff 	movl   $0xffffffff,0xc(%rbx)
   140002ffd:	e9 f6 fc ff ff       	jmp    140002cf8 <__pformat_emit_float+0x88>
   140003002:	66 0f 1f 44 00 00    	nopw   0x0(%rax,%rax,1)
   140003008:	48 89 da             	mov    %rbx,%rdx
   14000300b:	b9 20 00 00 00       	mov    $0x20,%ecx
   140003010:	e8 cb f7 ff ff       	call   1400027e0 <__pformat_putc>
   140003015:	e9 fb fc ff ff       	jmp    140002d15 <__pformat_emit_float+0xa5>
   14000301a:	89 d0                	mov    %edx,%eax
   14000301c:	e9 9f fd ff ff       	jmp    140002dc0 <__pformat_emit_float+0x150>
   140003021:	66 66 2e 0f 1f 84 00 	data16 cs nopw 0x0(%rax,%rax,1)
   140003028:	00 00 00 00 
   14000302c:	0f 1f 40 00          	nopl   0x0(%rax)

0000000140003030 <__pformat_float>:
   140003030:	41 54                	push   %r12
   140003032:	53                   	push   %rbx
   140003033:	48 83 ec 68          	sub    $0x68,%rsp
   140003037:	44 8b 42 10          	mov    0x10(%rdx),%r8d
   14000303b:	db 29                	fldt   (%rcx)
   14000303d:	48 89 d3             	mov    %rdx,%rbx
   140003040:	45 85 c0             	test   %r8d,%r8d
   140003043:	79 0d                	jns    140003052 <__pformat_float+0x22>
   140003045:	c7 42 10 06 00 00 00 	movl   $0x6,0x10(%rdx)
   14000304c:	41 b8 06 00 00 00    	mov    $0x6,%r8d
   140003052:	48 8d 44 24 48       	lea    0x48(%rsp),%rax
   140003057:	db 7c 24 50          	fstpt  0x50(%rsp)
   14000305b:	f3 0f 6f 44 24 50    	movdqu 0x50(%rsp),%xmm0
   140003061:	48 8d 54 24 30       	lea    0x30(%rsp),%rdx
   140003066:	4c 8d 4c 24 4c       	lea    0x4c(%rsp),%r9
   14000306b:	b9 03 00 00 00       	mov    $0x3,%ecx
   140003070:	48 89 44 24 20       	mov    %rax,0x20(%rsp)
   140003075:	0f 11 44 24 30       	movups %xmm0,0x30(%rsp)
   14000307a:	e8 51 f6 ff ff       	call   1400026d0 <__pformat_cvt>
   14000307f:	44 8b 44 24 4c       	mov    0x4c(%rsp),%r8d
   140003084:	49 89 c4             	mov    %rax,%r12
   140003087:	41 81 f8 00 80 ff ff 	cmp    $0xffff8000,%r8d
   14000308e:	74 48                	je     1400030d8 <__pformat_float+0xa8>
   140003090:	8b 4c 24 48          	mov    0x48(%rsp),%ecx
   140003094:	49 89 d9             	mov    %rbx,%r9
   140003097:	48 89 c2             	mov    %rax,%rdx
   14000309a:	e8 d1 fb ff ff       	call   140002c70 <__pformat_emit_float>
   14000309f:	eb 14                	jmp    1400030b5 <__pformat_float+0x85>
   1400030a1:	0f 1f 80 00 00 00 00 	nopl   0x0(%rax)
   1400030a8:	48 89 da             	mov    %rbx,%rdx
   1400030ab:	b9 20 00 00 00       	mov    $0x20,%ecx
   1400030b0:	e8 2b f7 ff ff       	call   1400027e0 <__pformat_putc>
   1400030b5:	8b 43 0c             	mov    0xc(%rbx),%eax
   1400030b8:	8d 50 ff             	lea    -0x1(%rax),%edx
   1400030bb:	89 53 0c             	mov    %edx,0xc(%rbx)
   1400030be:	85 c0                	test   %eax,%eax
   1400030c0:	7f e6                	jg     1400030a8 <__pformat_float+0x78>
   1400030c2:	4c 89 e1             	mov    %r12,%rcx
   1400030c5:	e8 f6 1a 00 00       	call   140004bc0 <__freedtoa>
   1400030ca:	90                   	nop
   1400030cb:	48 83 c4 68          	add    $0x68,%rsp
   1400030cf:	5b                   	pop    %rbx
   1400030d0:	41 5c                	pop    %r12
   1400030d2:	c3                   	ret    
   1400030d3:	0f 1f 44 00 00       	nopl   0x0(%rax,%rax,1)
   1400030d8:	8b 4c 24 48          	mov    0x48(%rsp),%ecx
   1400030dc:	49 89 d8             	mov    %rbx,%r8
   1400030df:	48 89 c2             	mov    %rax,%rdx
   1400030e2:	e8 c9 f9 ff ff       	call   140002ab0 <__pformat_emit_inf_or_nan>
   1400030e7:	4c 89 e1             	mov    %r12,%rcx
   1400030ea:	e8 d1 1a 00 00       	call   140004bc0 <__freedtoa>
   1400030ef:	90                   	nop
   1400030f0:	48 83 c4 68          	add    $0x68,%rsp
   1400030f4:	5b                   	pop    %rbx
   1400030f5:	41 5c                	pop    %r12
   1400030f7:	c3                   	ret    
   1400030f8:	0f 1f 84 00 00 00 00 	nopl   0x0(%rax,%rax,1)
   1400030ff:	00 

0000000140003100 <__pformat_int.isra.0>:
   140003100:	55                   	push   %rbp
   140003101:	41 57                	push   %r15
   140003103:	41 56                	push   %r14
   140003105:	41 55                	push   %r13
   140003107:	41 54                	push   %r12
   140003109:	57                   	push   %rdi
   14000310a:	56                   	push   %rsi
   14000310b:	53                   	push   %rbx
   14000310c:	48 83 ec 28          	sub    $0x28,%rsp
   140003110:	48 8d ac 24 80 00 00 	lea    0x80(%rsp),%rbp
   140003117:	00 
   140003118:	b8 00 00 00 00       	mov    $0x0,%eax
   14000311d:	44 8b 6a 10          	mov    0x10(%rdx),%r13d
   140003121:	44 8b 52 08          	mov    0x8(%rdx),%r10d
   140003125:	45 85 ed             	test   %r13d,%r13d
   140003128:	41 0f 49 c5          	cmovns %r13d,%eax
   14000312c:	48 89 d3             	mov    %rdx,%rbx
   14000312f:	83 c0 17             	add    $0x17,%eax
   140003132:	41 f7 c2 00 10 00 00 	test   $0x1000,%r10d
   140003139:	74 0b                	je     140003146 <__pformat_int.isra.0+0x46>
   14000313b:	66 83 7a 20 00       	cmpw   $0x0,0x20(%rdx)
   140003140:	0f 85 f2 01 00 00    	jne    140003338 <__pformat_int.isra.0+0x238>
   140003146:	44 8b 5b 0c          	mov    0xc(%rbx),%r11d
   14000314a:	41 39 c3             	cmp    %eax,%r11d
   14000314d:	41 0f 4d c3          	cmovge %r11d,%eax
   140003151:	48 98                	cltq   
   140003153:	48 83 c0 0f          	add    $0xf,%rax
   140003157:	48 83 e0 f0          	and    $0xfffffffffffffff0,%rax
   14000315b:	e8 e0 f4 ff ff       	call   140002640 <___chkstk_ms>
   140003160:	48 29 c4             	sub    %rax,%rsp
   140003163:	48 8d 7c 24 20       	lea    0x20(%rsp),%rdi
   140003168:	41 f6 c2 80          	test   $0x80,%r10b
   14000316c:	74 11                	je     14000317f <__pformat_int.isra.0+0x7f>
   14000316e:	48 85 c9             	test   %rcx,%rcx
   140003171:	0f 88 f9 01 00 00    	js     140003370 <__pformat_int.isra.0+0x270>
   140003177:	41 80 e2 7f          	and    $0x7f,%r10b
   14000317b:	44 89 53 08          	mov    %r10d,0x8(%rbx)
   14000317f:	48 85 c9             	test   %rcx,%rcx
   140003182:	0f 84 c8 02 00 00    	je     140003450 <__pformat_int.isra.0+0x350>
   140003188:	49 be 03 00 00 00 00 	movabs $0x8000000000000003,%r14
   14000318f:	00 00 80 
   140003192:	44 89 d6             	mov    %r10d,%esi
   140003195:	49 89 f8             	mov    %rdi,%r8
   140003198:	49 b9 cd cc cc cc cc 	movabs $0xcccccccccccccccd,%r9
   14000319f:	cc cc cc 
   1400031a2:	81 e6 00 10 00 00    	and    $0x1000,%esi
   1400031a8:	0f 1f 84 00 00 00 00 	nopl   0x0(%rax,%rax,1)
   1400031af:	00 
   1400031b0:	4d 8d 60 01          	lea    0x1(%r8),%r12
   1400031b4:	4c 39 c7             	cmp    %r8,%rdi
   1400031b7:	74 2f                	je     1400031e8 <__pformat_int.isra.0+0xe8>
   1400031b9:	85 f6                	test   %esi,%esi
   1400031bb:	74 2b                	je     1400031e8 <__pformat_int.isra.0+0xe8>
   1400031bd:	66 83 7b 20 00       	cmpw   $0x0,0x20(%rbx)
   1400031c2:	74 24                	je     1400031e8 <__pformat_int.isra.0+0xe8>
   1400031c4:	4c 89 c0             	mov    %r8,%rax
   1400031c7:	48 29 f8             	sub    %rdi,%rax
   1400031ca:	4c 21 f0             	and    %r14,%rax
   1400031cd:	48 83 f8 03          	cmp    $0x3,%rax
   1400031d1:	75 15                	jne    1400031e8 <__pformat_int.isra.0+0xe8>
   1400031d3:	49 8d 40 02          	lea    0x2(%r8),%rax
   1400031d7:	41 c6 00 2c          	movb   $0x2c,(%r8)
   1400031db:	4d 89 e0             	mov    %r12,%r8
   1400031de:	49 89 c4             	mov    %rax,%r12
   1400031e1:	0f 1f 80 00 00 00 00 	nopl   0x0(%rax)
   1400031e8:	48 89 c8             	mov    %rcx,%rax
   1400031eb:	49 89 cf             	mov    %rcx,%r15
   1400031ee:	49 f7 e1             	mul    %r9
   1400031f1:	48 c1 ea 03          	shr    $0x3,%rdx
   1400031f5:	48 8d 04 92          	lea    (%rdx,%rdx,4),%rax
   1400031f9:	48 01 c0             	add    %rax,%rax
   1400031fc:	49 29 c7             	sub    %rax,%r15
   1400031ff:	4c 89 f8             	mov    %r15,%rax
   140003202:	83 c0 30             	add    $0x30,%eax
   140003205:	41 88 00             	mov    %al,(%r8)
   140003208:	48 83 f9 09          	cmp    $0x9,%rcx
   14000320c:	76 12                	jbe    140003220 <__pformat_int.isra.0+0x120>
   14000320e:	48 89 d1             	mov    %rdx,%rcx
   140003211:	4d 89 e0             	mov    %r12,%r8
   140003214:	eb 9a                	jmp    1400031b0 <__pformat_int.isra.0+0xb0>
   140003216:	66 2e 0f 1f 84 00 00 	cs nopw 0x0(%rax,%rax,1)
   14000321d:	00 00 00 
   140003220:	45 85 ed             	test   %r13d,%r13d
   140003223:	0f 8e 57 01 00 00    	jle    140003380 <__pformat_int.isra.0+0x280>
   140003229:	4c 89 e0             	mov    %r12,%rax
   14000322c:	44 89 ea             	mov    %r13d,%edx
   14000322f:	48 29 f8             	sub    %rdi,%rax
   140003232:	29 c2                	sub    %eax,%edx
   140003234:	89 d0                	mov    %edx,%eax
   140003236:	85 d2                	test   %edx,%edx
   140003238:	7e 2b                	jle    140003265 <__pformat_int.isra.0+0x165>
   14000323a:	8d 48 ff             	lea    -0x1(%rax),%ecx
   14000323d:	8d 42 ff             	lea    -0x1(%rdx),%eax
   140003240:	49 8d 54 04 01       	lea    0x1(%r12,%rax,1),%rdx
   140003245:	4c 89 e0             	mov    %r12,%rax
   140003248:	0f 1f 84 00 00 00 00 	nopl   0x0(%rax,%rax,1)
   14000324f:	00 
   140003250:	48 83 c0 01          	add    $0x1,%rax
   140003254:	c6 40 ff 30          	movb   $0x30,-0x1(%rax)
   140003258:	48 39 d0             	cmp    %rdx,%rax
   14000325b:	75 f3                	jne    140003250 <__pformat_int.isra.0+0x150>
   14000325d:	48 63 c1             	movslq %ecx,%rax
   140003260:	4d 8d 64 04 01       	lea    0x1(%r12,%rax,1),%r12
   140003265:	4c 39 e7             	cmp    %r12,%rdi
   140003268:	0f 84 2a 01 00 00    	je     140003398 <__pformat_int.isra.0+0x298>
   14000326e:	45 85 db             	test   %r11d,%r11d
   140003271:	7e 3d                	jle    1400032b0 <__pformat_int.isra.0+0x1b0>
   140003273:	4c 89 e0             	mov    %r12,%rax
   140003276:	48 29 f8             	sub    %rdi,%rax
   140003279:	41 29 c3             	sub    %eax,%r11d
   14000327c:	44 89 5b 0c          	mov    %r11d,0xc(%rbx)
   140003280:	45 85 db             	test   %r11d,%r11d
   140003283:	7e 2b                	jle    1400032b0 <__pformat_int.isra.0+0x1b0>
   140003285:	41 f7 c2 c0 01 00 00 	test   $0x1c0,%r10d
   14000328c:	0f 85 1e 01 00 00    	jne    1400033b0 <__pformat_int.isra.0+0x2b0>
   140003292:	45 85 ed             	test   %r13d,%r13d
   140003295:	0f 88 26 01 00 00    	js     1400033c1 <__pformat_int.isra.0+0x2c1>
   14000329b:	41 f7 c2 00 04 00 00 	test   $0x400,%r10d
   1400032a2:	0f 84 68 01 00 00    	je     140003410 <__pformat_int.isra.0+0x310>
   1400032a8:	0f 1f 84 00 00 00 00 	nopl   0x0(%rax,%rax,1)
   1400032af:	00 
   1400032b0:	41 f6 c2 80          	test   $0x80,%r10b
   1400032b4:	74 6a                	je     140003320 <__pformat_int.isra.0+0x220>
   1400032b6:	41 c6 04 24 2d       	movb   $0x2d,(%r12)
   1400032bb:	49 8d 74 24 01       	lea    0x1(%r12),%rsi
   1400032c0:	48 39 f7             	cmp    %rsi,%rdi
   1400032c3:	73 38                	jae    1400032fd <__pformat_int.isra.0+0x1fd>
   1400032c5:	0f 1f 00             	nopl   (%rax)
   1400032c8:	0f be 4e ff          	movsbl -0x1(%rsi),%ecx
   1400032cc:	48 83 ee 01          	sub    $0x1,%rsi
   1400032d0:	48 89 da             	mov    %rbx,%rdx
   1400032d3:	e8 08 f5 ff ff       	call   1400027e0 <__pformat_putc>
   1400032d8:	48 39 f7             	cmp    %rsi,%rdi
   1400032db:	75 eb                	jne    1400032c8 <__pformat_int.isra.0+0x1c8>
   1400032dd:	8b 43 0c             	mov    0xc(%rbx),%eax
   1400032e0:	8d 50 ff             	lea    -0x1(%rax),%edx
   1400032e3:	89 53 0c             	mov    %edx,0xc(%rbx)
   1400032e6:	85 c0                	test   %eax,%eax
   1400032e8:	7e 20                	jle    14000330a <__pformat_int.isra.0+0x20a>
   1400032ea:	66 0f 1f 44 00 00    	nopw   0x0(%rax,%rax,1)
   1400032f0:	48 89 da             	mov    %rbx,%rdx
   1400032f3:	b9 20 00 00 00       	mov    $0x20,%ecx
   1400032f8:	e8 e3 f4 ff ff       	call   1400027e0 <__pformat_putc>
   1400032fd:	8b 43 0c             	mov    0xc(%rbx),%eax
   140003300:	8d 50 ff             	lea    -0x1(%rax),%edx
   140003303:	89 53 0c             	mov    %edx,0xc(%rbx)
   140003306:	85 c0                	test   %eax,%eax
   140003308:	7f e6                	jg     1400032f0 <__pformat_int.isra.0+0x1f0>
   14000330a:	48 8d 65 a8          	lea    -0x58(%rbp),%rsp
   14000330e:	5b                   	pop    %rbx
   14000330f:	5e                   	pop    %rsi
   140003310:	5f                   	pop    %rdi
   140003311:	41 5c                	pop    %r12
   140003313:	41 5d                	pop    %r13
   140003315:	41 5e                	pop    %r14
   140003317:	41 5f                	pop    %r15
   140003319:	5d                   	pop    %rbp
   14000331a:	c3                   	ret    
   14000331b:	0f 1f 44 00 00       	nopl   0x0(%rax,%rax,1)
   140003320:	41 f7 c2 00 01 00 00 	test   $0x100,%r10d
   140003327:	74 27                	je     140003350 <__pformat_int.isra.0+0x250>
   140003329:	41 c6 04 24 2b       	movb   $0x2b,(%r12)
   14000332e:	49 8d 74 24 01       	lea    0x1(%r12),%rsi
   140003333:	eb 8b                	jmp    1400032c0 <__pformat_int.isra.0+0x1c0>
   140003335:	0f 1f 00             	nopl   (%rax)
   140003338:	89 c2                	mov    %eax,%edx
   14000333a:	41 b8 ab aa aa aa    	mov    $0xaaaaaaab,%r8d
   140003340:	49 0f af d0          	imul   %r8,%rdx
   140003344:	48 c1 ea 21          	shr    $0x21,%rdx
   140003348:	01 d0                	add    %edx,%eax
   14000334a:	e9 f7 fd ff ff       	jmp    140003146 <__pformat_int.isra.0+0x46>
   14000334f:	90                   	nop
   140003350:	41 83 e2 40          	and    $0x40,%r10d
   140003354:	4c 89 e6             	mov    %r12,%rsi
   140003357:	0f 84 63 ff ff ff    	je     1400032c0 <__pformat_int.isra.0+0x1c0>
   14000335d:	41 c6 04 24 20       	movb   $0x20,(%r12)
   140003362:	48 83 c6 01          	add    $0x1,%rsi
   140003366:	e9 55 ff ff ff       	jmp    1400032c0 <__pformat_int.isra.0+0x1c0>
   14000336b:	0f 1f 44 00 00       	nopl   0x0(%rax,%rax,1)
   140003370:	48 f7 d9             	neg    %rcx
   140003373:	e9 10 fe ff ff       	jmp    140003188 <__pformat_int.isra.0+0x88>
   140003378:	0f 1f 84 00 00 00 00 	nopl   0x0(%rax,%rax,1)
   14000337f:	00 
   140003380:	4c 39 e7             	cmp    %r12,%rdi
   140003383:	0f 85 e5 fe ff ff    	jne    14000326e <__pformat_int.isra.0+0x16e>
   140003389:	45 85 ed             	test   %r13d,%r13d
   14000338c:	0f 84 dc fe ff ff    	je     14000326e <__pformat_int.isra.0+0x16e>
   140003392:	66 0f 1f 44 00 00    	nopw   0x0(%rax,%rax,1)
   140003398:	41 c6 04 24 30       	movb   $0x30,(%r12)
   14000339d:	49 83 c4 01          	add    $0x1,%r12
   1400033a1:	e9 c8 fe ff ff       	jmp    14000326e <__pformat_int.isra.0+0x16e>
   1400033a6:	66 2e 0f 1f 84 00 00 	cs nopw 0x0(%rax,%rax,1)
   1400033ad:	00 00 00 
   1400033b0:	41 83 eb 01          	sub    $0x1,%r11d
   1400033b4:	44 89 5b 0c          	mov    %r11d,0xc(%rbx)
   1400033b8:	45 85 ed             	test   %r13d,%r13d
   1400033bb:	0f 89 da fe ff ff    	jns    14000329b <__pformat_int.isra.0+0x19b>
   1400033c1:	44 89 d0             	mov    %r10d,%eax
   1400033c4:	25 00 06 00 00       	and    $0x600,%eax
   1400033c9:	3d 00 02 00 00       	cmp    $0x200,%eax
   1400033ce:	0f 85 c7 fe ff ff    	jne    14000329b <__pformat_int.isra.0+0x19b>
   1400033d4:	8b 53 0c             	mov    0xc(%rbx),%edx
   1400033d7:	8d 42 ff             	lea    -0x1(%rdx),%eax
   1400033da:	89 43 0c             	mov    %eax,0xc(%rbx)
   1400033dd:	85 d2                	test   %edx,%edx
   1400033df:	0f 8e cb fe ff ff    	jle    1400032b0 <__pformat_int.isra.0+0x1b0>
   1400033e5:	89 c1                	mov    %eax,%ecx
   1400033e7:	4c 89 e0             	mov    %r12,%rax
   1400033ea:	49 8d 54 0c 01       	lea    0x1(%r12,%rcx,1),%rdx
   1400033ef:	90                   	nop
   1400033f0:	48 83 c0 01          	add    $0x1,%rax
   1400033f4:	c6 40 ff 30          	movb   $0x30,-0x1(%rax)
   1400033f8:	48 39 d0             	cmp    %rdx,%rax
   1400033fb:	75 f3                	jne    1400033f0 <__pformat_int.isra.0+0x2f0>
   1400033fd:	c7 43 0c ff ff ff ff 	movl   $0xffffffff,0xc(%rbx)
   140003404:	4d 8d 64 0c 01       	lea    0x1(%r12,%rcx,1),%r12
   140003409:	e9 a2 fe ff ff       	jmp    1400032b0 <__pformat_int.isra.0+0x1b0>
   14000340e:	66 90                	xchg   %ax,%ax
   140003410:	8b 43 0c             	mov    0xc(%rbx),%eax
   140003413:	8d 50 ff             	lea    -0x1(%rax),%edx
   140003416:	89 53 0c             	mov    %edx,0xc(%rbx)
   140003419:	85 c0                	test   %eax,%eax
   14000341b:	0f 8e 8f fe ff ff    	jle    1400032b0 <__pformat_int.isra.0+0x1b0>
   140003421:	0f 1f 80 00 00 00 00 	nopl   0x0(%rax)
   140003428:	48 89 da             	mov    %rbx,%rdx
   14000342b:	b9 20 00 00 00       	mov    $0x20,%ecx
   140003430:	e8 ab f3 ff ff       	call   1400027e0 <__pformat_putc>
   140003435:	8b 43 0c             	mov    0xc(%rbx),%eax
   140003438:	8d 50 ff             	lea    -0x1(%rax),%edx
   14000343b:	89 53 0c             	mov    %edx,0xc(%rbx)
   14000343e:	85 c0                	test   %eax,%eax
   140003440:	7f e6                	jg     140003428 <__pformat_int.isra.0+0x328>
   140003442:	44 8b 53 08          	mov    0x8(%rbx),%r10d
   140003446:	e9 65 fe ff ff       	jmp    1400032b0 <__pformat_int.isra.0+0x1b0>
   14000344b:	0f 1f 44 00 00       	nopl   0x0(%rax,%rax,1)
   140003450:	45 85 ed             	test   %r13d,%r13d
   140003453:	7e 0e                	jle    140003463 <__pformat_int.isra.0+0x363>
   140003455:	44 89 ea             	mov    %r13d,%edx
   140003458:	49 89 fc             	mov    %rdi,%r12
   14000345b:	44 89 e8             	mov    %r13d,%eax
   14000345e:	e9 d7 fd ff ff       	jmp    14000323a <__pformat_int.isra.0+0x13a>
   140003463:	49 89 fc             	mov    %rdi,%r12
   140003466:	e9 1e ff ff ff       	jmp    140003389 <__pformat_int.isra.0+0x289>
   14000346b:	0f 1f 44 00 00       	nopl   0x0(%rax,%rax,1)

0000000140003470 <__pformat_emit_efloat>:
   140003470:	41 55                	push   %r13
   140003472:	41 54                	push   %r12
   140003474:	53                   	push   %rbx
   140003475:	48 83 ec 20          	sub    $0x20,%rsp
   140003479:	41 ba 01 00 00 00    	mov    $0x1,%r10d
   14000347f:	41 8d 40 ff          	lea    -0x1(%r8),%eax
   140003483:	4d 89 cc             	mov    %r9,%r12
   140003486:	4c 63 e8             	movslq %eax,%r13
   140003489:	c1 f8 1f             	sar    $0x1f,%eax
   14000348c:	4d 69 c5 67 66 66 66 	imul   $0x66666667,%r13,%r8
   140003493:	49 c1 f8 22          	sar    $0x22,%r8
   140003497:	41 29 c0             	sub    %eax,%r8d
   14000349a:	74 22                	je     1400034be <__pformat_emit_efloat+0x4e>
   14000349c:	0f 1f 40 00          	nopl   0x0(%rax)
   1400034a0:	49 63 c0             	movslq %r8d,%rax
   1400034a3:	41 c1 f8 1f          	sar    $0x1f,%r8d
   1400034a7:	41 83 c2 01          	add    $0x1,%r10d
   1400034ab:	48 69 c0 67 66 66 66 	imul   $0x66666667,%rax,%rax
   1400034b2:	48 c1 f8 22          	sar    $0x22,%rax
   1400034b6:	44 29 c0             	sub    %r8d,%eax
   1400034b9:	41 89 c0             	mov    %eax,%r8d
   1400034bc:	75 e2                	jne    1400034a0 <__pformat_emit_efloat+0x30>
   1400034be:	41 8b 5c 24 2c       	mov    0x2c(%r12),%ebx
   1400034c3:	83 fb ff             	cmp    $0xffffffff,%ebx
   1400034c6:	75 0e                	jne    1400034d6 <__pformat_emit_efloat+0x66>
   1400034c8:	41 c7 44 24 2c 02 00 	movl   $0x2,0x2c(%r12)
   1400034cf:	00 00 
   1400034d1:	bb 02 00 00 00       	mov    $0x2,%ebx
   1400034d6:	41 39 da             	cmp    %ebx,%r10d
   1400034d9:	45 8b 4c 24 0c       	mov    0xc(%r12),%r9d
   1400034de:	41 0f 4d da          	cmovge %r10d,%ebx
   1400034e2:	44 89 c8             	mov    %r9d,%eax
   1400034e5:	44 8d 43 02          	lea    0x2(%rbx),%r8d
   1400034e9:	44 29 c0             	sub    %r8d,%eax
   1400034ec:	45 39 c1             	cmp    %r8d,%r9d
   1400034ef:	41 b8 ff ff ff ff    	mov    $0xffffffff,%r8d
   1400034f5:	4d 89 e1             	mov    %r12,%r9
   1400034f8:	41 0f 4e c0          	cmovle %r8d,%eax
   1400034fc:	41 b8 01 00 00 00    	mov    $0x1,%r8d
   140003502:	41 89 44 24 0c       	mov    %eax,0xc(%r12)
   140003507:	e8 64 f7 ff ff       	call   140002c70 <__pformat_emit_float>
   14000350c:	41 8b 4c 24 08       	mov    0x8(%r12),%ecx
   140003511:	41 8b 44 24 2c       	mov    0x2c(%r12),%eax
   140003516:	4c 89 e2             	mov    %r12,%rdx
   140003519:	41 89 44 24 10       	mov    %eax,0x10(%r12)
   14000351e:	89 c8                	mov    %ecx,%eax
   140003520:	83 e1 20             	and    $0x20,%ecx
   140003523:	0d c0 01 00 00       	or     $0x1c0,%eax
   140003528:	83 c9 45             	or     $0x45,%ecx
   14000352b:	41 89 44 24 08       	mov    %eax,0x8(%r12)
   140003530:	e8 ab f2 ff ff       	call   1400027e0 <__pformat_putc>
   140003535:	44 8d 53 01          	lea    0x1(%rbx),%r10d
   140003539:	4c 89 e2             	mov    %r12,%rdx
   14000353c:	4c 89 e9             	mov    %r13,%rcx
   14000353f:	45 01 54 24 0c       	add    %r10d,0xc(%r12)
   140003544:	48 83 c4 20          	add    $0x20,%rsp
   140003548:	5b                   	pop    %rbx
   140003549:	41 5c                	pop    %r12
   14000354b:	41 5d                	pop    %r13
   14000354d:	e9 ae fb ff ff       	jmp    140003100 <__pformat_int.isra.0>
   140003552:	66 66 2e 0f 1f 84 00 	data16 cs nopw 0x0(%rax,%rax,1)
   140003559:	00 00 00 00 
   14000355d:	0f 1f 00             	nopl   (%rax)

0000000140003560 <__pformat_efloat>:
   140003560:	41 54                	push   %r12
   140003562:	53                   	push   %rbx
   140003563:	48 83 ec 68          	sub    $0x68,%rsp
   140003567:	44 8b 42 10          	mov    0x10(%rdx),%r8d
   14000356b:	db 29                	fldt   (%rcx)
   14000356d:	48 89 d3             	mov    %rdx,%rbx
   140003570:	45 85 c0             	test   %r8d,%r8d
   140003573:	78 6b                	js     1400035e0 <__pformat_efloat+0x80>
   140003575:	41 83 c0 01          	add    $0x1,%r8d
   140003579:	48 8d 44 24 48       	lea    0x48(%rsp),%rax
   14000357e:	db 7c 24 50          	fstpt  0x50(%rsp)
   140003582:	f3 0f 6f 44 24 50    	movdqu 0x50(%rsp),%xmm0
   140003588:	48 8d 54 24 30       	lea    0x30(%rsp),%rdx
   14000358d:	4c 8d 4c 24 4c       	lea    0x4c(%rsp),%r9
   140003592:	b9 02 00 00 00       	mov    $0x2,%ecx
   140003597:	48 89 44 24 20       	mov    %rax,0x20(%rsp)
   14000359c:	0f 11 44 24 30       	movups %xmm0,0x30(%rsp)
   1400035a1:	e8 2a f1 ff ff       	call   1400026d0 <__pformat_cvt>
   1400035a6:	44 8b 44 24 4c       	mov    0x4c(%rsp),%r8d
   1400035ab:	49 89 c4             	mov    %rax,%r12
   1400035ae:	41 81 f8 00 80 ff ff 	cmp    $0xffff8000,%r8d
   1400035b5:	74 39                	je     1400035f0 <__pformat_efloat+0x90>
   1400035b7:	8b 4c 24 48          	mov    0x48(%rsp),%ecx
   1400035bb:	49 89 d9             	mov    %rbx,%r9
   1400035be:	48 89 c2             	mov    %rax,%rdx
   1400035c1:	e8 aa fe ff ff       	call   140003470 <__pformat_emit_efloat>
   1400035c6:	4c 89 e1             	mov    %r12,%rcx
   1400035c9:	e8 f2 15 00 00       	call   140004bc0 <__freedtoa>
   1400035ce:	90                   	nop
   1400035cf:	48 83 c4 68          	add    $0x68,%rsp
   1400035d3:	5b                   	pop    %rbx
   1400035d4:	41 5c                	pop    %r12
   1400035d6:	c3                   	ret    
   1400035d7:	66 0f 1f 84 00 00 00 	nopw   0x0(%rax,%rax,1)
   1400035de:	00 00 
   1400035e0:	c7 42 10 06 00 00 00 	movl   $0x6,0x10(%rdx)
   1400035e7:	41 b8 07 00 00 00    	mov    $0x7,%r8d
   1400035ed:	eb 8a                	jmp    140003579 <__pformat_efloat+0x19>
   1400035ef:	90                   	nop
   1400035f0:	8b 4c 24 48          	mov    0x48(%rsp),%ecx
   1400035f4:	49 89 d8             	mov    %rbx,%r8
   1400035f7:	48 89 c2             	mov    %rax,%rdx
   1400035fa:	e8 b1 f4 ff ff       	call   140002ab0 <__pformat_emit_inf_or_nan>
   1400035ff:	4c 89 e1             	mov    %r12,%rcx
   140003602:	e8 b9 15 00 00       	call   140004bc0 <__freedtoa>
   140003607:	90                   	nop
   140003608:	48 83 c4 68          	add    $0x68,%rsp
   14000360c:	5b                   	pop    %rbx
   14000360d:	41 5c                	pop    %r12
   14000360f:	c3                   	ret    

0000000140003610 <__pformat_gfloat>:
   140003610:	41 54                	push   %r12
   140003612:	56                   	push   %rsi
   140003613:	53                   	push   %rbx
   140003614:	48 83 ec 60          	sub    $0x60,%rsp
   140003618:	44 8b 42 10          	mov    0x10(%rdx),%r8d
   14000361c:	db 29                	fldt   (%rcx)
   14000361e:	48 89 d3             	mov    %rdx,%rbx
   140003621:	45 85 c0             	test   %r8d,%r8d
   140003624:	0f 88 fe 00 00 00    	js     140003728 <__pformat_gfloat+0x118>
   14000362a:	0f 84 e0 00 00 00    	je     140003710 <__pformat_gfloat+0x100>
   140003630:	48 8d 44 24 48       	lea    0x48(%rsp),%rax
   140003635:	db 7c 24 50          	fstpt  0x50(%rsp)
   140003639:	f3 0f 6f 44 24 50    	movdqu 0x50(%rsp),%xmm0
   14000363f:	48 8d 54 24 30       	lea    0x30(%rsp),%rdx
   140003644:	4c 8d 4c 24 4c       	lea    0x4c(%rsp),%r9
   140003649:	b9 02 00 00 00       	mov    $0x2,%ecx
   14000364e:	48 89 44 24 20       	mov    %rax,0x20(%rsp)
   140003653:	0f 11 44 24 30       	movups %xmm0,0x30(%rsp)
   140003658:	e8 73 f0 ff ff       	call   1400026d0 <__pformat_cvt>
   14000365d:	8b 74 24 4c          	mov    0x4c(%rsp),%esi
   140003661:	49 89 c4             	mov    %rax,%r12
   140003664:	81 fe 00 80 ff ff    	cmp    $0xffff8000,%esi
   14000366a:	0f 84 d0 00 00 00    	je     140003740 <__pformat_gfloat+0x130>
   140003670:	8b 43 08             	mov    0x8(%rbx),%eax
   140003673:	25 00 08 00 00       	and    $0x800,%eax
   140003678:	83 fe fd             	cmp    $0xfffffffd,%esi
   14000367b:	7c 4b                	jl     1400036c8 <__pformat_gfloat+0xb8>
   14000367d:	8b 53 10             	mov    0x10(%rbx),%edx
   140003680:	39 d6                	cmp    %edx,%esi
   140003682:	7f 44                	jg     1400036c8 <__pformat_gfloat+0xb8>
   140003684:	85 c0                	test   %eax,%eax
   140003686:	0f 84 cc 00 00 00    	je     140003758 <__pformat_gfloat+0x148>
   14000368c:	29 f2                	sub    %esi,%edx
   14000368e:	89 53 10             	mov    %edx,0x10(%rbx)
   140003691:	8b 4c 24 48          	mov    0x48(%rsp),%ecx
   140003695:	49 89 d9             	mov    %rbx,%r9
   140003698:	41 89 f0             	mov    %esi,%r8d
   14000369b:	4c 89 e2             	mov    %r12,%rdx
   14000369e:	e8 cd f5 ff ff       	call   140002c70 <__pformat_emit_float>
   1400036a3:	eb 10                	jmp    1400036b5 <__pformat_gfloat+0xa5>
   1400036a5:	0f 1f 00             	nopl   (%rax)
   1400036a8:	48 89 da             	mov    %rbx,%rdx
   1400036ab:	b9 20 00 00 00       	mov    $0x20,%ecx
   1400036b0:	e8 2b f1 ff ff       	call   1400027e0 <__pformat_putc>
   1400036b5:	8b 43 0c             	mov    0xc(%rbx),%eax
   1400036b8:	8d 50 ff             	lea    -0x1(%rax),%edx
   1400036bb:	89 53 0c             	mov    %edx,0xc(%rbx)
   1400036be:	85 c0                	test   %eax,%eax
   1400036c0:	7f e6                	jg     1400036a8 <__pformat_gfloat+0x98>
   1400036c2:	eb 28                	jmp    1400036ec <__pformat_gfloat+0xdc>
   1400036c4:	0f 1f 40 00          	nopl   0x0(%rax)
   1400036c8:	85 c0                	test   %eax,%eax
   1400036ca:	75 34                	jne    140003700 <__pformat_gfloat+0xf0>
   1400036cc:	4c 89 e1             	mov    %r12,%rcx
   1400036cf:	e8 24 3b 00 00       	call   1400071f8 <strlen>
   1400036d4:	83 e8 01             	sub    $0x1,%eax
   1400036d7:	89 43 10             	mov    %eax,0x10(%rbx)
   1400036da:	8b 4c 24 48          	mov    0x48(%rsp),%ecx
   1400036de:	49 89 d9             	mov    %rbx,%r9
   1400036e1:	41 89 f0             	mov    %esi,%r8d
   1400036e4:	4c 89 e2             	mov    %r12,%rdx
   1400036e7:	e8 84 fd ff ff       	call   140003470 <__pformat_emit_efloat>
   1400036ec:	4c 89 e1             	mov    %r12,%rcx
   1400036ef:	e8 cc 14 00 00       	call   140004bc0 <__freedtoa>
   1400036f4:	90                   	nop
   1400036f5:	48 83 c4 60          	add    $0x60,%rsp
   1400036f9:	5b                   	pop    %rbx
   1400036fa:	5e                   	pop    %rsi
   1400036fb:	41 5c                	pop    %r12
   1400036fd:	c3                   	ret    
   1400036fe:	66 90                	xchg   %ax,%ax
   140003700:	8b 43 10             	mov    0x10(%rbx),%eax
   140003703:	83 e8 01             	sub    $0x1,%eax
   140003706:	eb cf                	jmp    1400036d7 <__pformat_gfloat+0xc7>
   140003708:	0f 1f 84 00 00 00 00 	nopl   0x0(%rax,%rax,1)
   14000370f:	00 
   140003710:	c7 42 10 01 00 00 00 	movl   $0x1,0x10(%rdx)
   140003717:	41 b8 01 00 00 00    	mov    $0x1,%r8d
   14000371d:	e9 0e ff ff ff       	jmp    140003630 <__pformat_gfloat+0x20>
   140003722:	66 0f 1f 44 00 00    	nopw   0x0(%rax,%rax,1)
   140003728:	c7 42 10 06 00 00 00 	movl   $0x6,0x10(%rdx)
   14000372f:	41 b8 06 00 00 00    	mov    $0x6,%r8d
   140003735:	e9 f6 fe ff ff       	jmp    140003630 <__pformat_gfloat+0x20>
   14000373a:	66 0f 1f 44 00 00    	nopw   0x0(%rax,%rax,1)
   140003740:	8b 4c 24 48          	mov    0x48(%rsp),%ecx
   140003744:	49 89 d8             	mov    %rbx,%r8
   140003747:	48 89 c2             	mov    %rax,%rdx
   14000374a:	e8 61 f3 ff ff       	call   140002ab0 <__pformat_emit_inf_or_nan>
   14000374f:	eb 9b                	jmp    1400036ec <__pformat_gfloat+0xdc>
   140003751:	0f 1f 80 00 00 00 00 	nopl   0x0(%rax)
   140003758:	4c 89 e1             	mov    %r12,%rcx
   14000375b:	e8 98 3a 00 00       	call   1400071f8 <strlen>
   140003760:	29 f0                	sub    %esi,%eax
   140003762:	89 43 10             	mov    %eax,0x10(%rbx)
   140003765:	0f 89 26 ff ff ff    	jns    140003691 <__pformat_gfloat+0x81>
   14000376b:	8b 53 0c             	mov    0xc(%rbx),%edx
   14000376e:	85 d2                	test   %edx,%edx
   140003770:	0f 8e 1b ff ff ff    	jle    140003691 <__pformat_gfloat+0x81>
   140003776:	01 d0                	add    %edx,%eax
   140003778:	89 43 0c             	mov    %eax,0xc(%rbx)
   14000377b:	e9 11 ff ff ff       	jmp    140003691 <__pformat_gfloat+0x81>

0000000140003780 <__pformat_xint.isra.0>:
   140003780:	55                   	push   %rbp
   140003781:	41 57                	push   %r15
   140003783:	41 56                	push   %r14
   140003785:	41 55                	push   %r13
   140003787:	41 54                	push   %r12
   140003789:	57                   	push   %rdi
   14000378a:	56                   	push   %rsi
   14000378b:	53                   	push   %rbx
   14000378c:	48 83 ec 28          	sub    $0x28,%rsp
   140003790:	48 8d ac 24 80 00 00 	lea    0x80(%rsp),%rbp
   140003797:	00 
   140003798:	41 89 ca             	mov    %ecx,%r10d
   14000379b:	4c 89 c6             	mov    %r8,%rsi
   14000379e:	83 f9 6f             	cmp    $0x6f,%ecx
   1400037a1:	0f 84 81 02 00 00    	je     140003a28 <__pformat_xint.isra.0+0x2a8>
   1400037a7:	45 8b 58 10          	mov    0x10(%r8),%r11d
   1400037ab:	b8 00 00 00 00       	mov    $0x0,%eax
   1400037b0:	45 8b 60 08          	mov    0x8(%r8),%r12d
   1400037b4:	45 85 db             	test   %r11d,%r11d
   1400037b7:	41 0f 49 c3          	cmovns %r11d,%eax
   1400037bb:	83 c0 12             	add    $0x12,%eax
   1400037be:	41 f7 c4 00 10 00 00 	test   $0x1000,%r12d
   1400037c5:	0f 85 55 01 00 00    	jne    140003920 <__pformat_xint.isra.0+0x1a0>
   1400037cb:	44 8b 4e 0c          	mov    0xc(%rsi),%r9d
   1400037cf:	41 39 c1             	cmp    %eax,%r9d
   1400037d2:	41 0f 4d c1          	cmovge %r9d,%eax
   1400037d6:	48 98                	cltq   
   1400037d8:	48 83 c0 0f          	add    $0xf,%rax
   1400037dc:	48 83 e0 f0          	and    $0xfffffffffffffff0,%rax
   1400037e0:	e8 5b ee ff ff       	call   140002640 <___chkstk_ms>
   1400037e5:	b9 04 00 00 00       	mov    $0x4,%ecx
   1400037ea:	41 b8 0f 00 00 00    	mov    $0xf,%r8d
   1400037f0:	48 29 c4             	sub    %rax,%rsp
   1400037f3:	48 8d 7c 24 20       	lea    0x20(%rsp),%rdi
   1400037f8:	48 89 fb             	mov    %rdi,%rbx
   1400037fb:	48 85 d2             	test   %rdx,%rdx
   1400037fe:	0f 84 ac 02 00 00    	je     140003ab0 <__pformat_xint.isra.0+0x330>
   140003804:	45 89 d5             	mov    %r10d,%r13d
   140003807:	41 83 e5 20          	and    $0x20,%r13d
   14000380b:	0f 1f 44 00 00       	nopl   0x0(%rax,%rax,1)
   140003810:	44 89 c0             	mov    %r8d,%eax
   140003813:	48 83 c3 01          	add    $0x1,%rbx
   140003817:	21 d0                	and    %edx,%eax
   140003819:	44 8d 70 30          	lea    0x30(%rax),%r14d
   14000381d:	83 c0 37             	add    $0x37,%eax
   140003820:	44 09 e8             	or     %r13d,%eax
   140003823:	45 89 f7             	mov    %r14d,%r15d
   140003826:	41 80 fe 3a          	cmp    $0x3a,%r14b
   14000382a:	41 0f 42 c7          	cmovb  %r15d,%eax
   14000382e:	48 d3 ea             	shr    %cl,%rdx
   140003831:	88 43 ff             	mov    %al,-0x1(%rbx)
   140003834:	48 85 d2             	test   %rdx,%rdx
   140003837:	75 d7                	jne    140003810 <__pformat_xint.isra.0+0x90>
   140003839:	48 39 fb             	cmp    %rdi,%rbx
   14000383c:	0f 84 6e 02 00 00    	je     140003ab0 <__pformat_xint.isra.0+0x330>
   140003842:	45 85 db             	test   %r11d,%r11d
   140003845:	0f 8e 15 01 00 00    	jle    140003960 <__pformat_xint.isra.0+0x1e0>
   14000384b:	48 89 d8             	mov    %rbx,%rax
   14000384e:	44 89 d9             	mov    %r11d,%ecx
   140003851:	48 29 f8             	sub    %rdi,%rax
   140003854:	29 c1                	sub    %eax,%ecx
   140003856:	89 c8                	mov    %ecx,%eax
   140003858:	85 c9                	test   %ecx,%ecx
   14000385a:	0f 8e 00 01 00 00    	jle    140003960 <__pformat_xint.isra.0+0x1e0>
   140003860:	83 e8 01             	sub    $0x1,%eax
   140003863:	48 89 c2             	mov    %rax,%rdx
   140003866:	48 8d 4c 03 01       	lea    0x1(%rbx,%rax,1),%rcx
   14000386b:	48 89 d8             	mov    %rbx,%rax
   14000386e:	66 90                	xchg   %ax,%ax
   140003870:	48 83 c0 01          	add    $0x1,%rax
   140003874:	c6 40 ff 30          	movb   $0x30,-0x1(%rax)
   140003878:	48 39 c8             	cmp    %rcx,%rax
   14000387b:	75 f3                	jne    140003870 <__pformat_xint.isra.0+0xf0>
   14000387d:	48 63 c2             	movslq %edx,%rax
   140003880:	48 8d 5c 03 01       	lea    0x1(%rbx,%rax,1),%rbx
   140003885:	48 39 fb             	cmp    %rdi,%rbx
   140003888:	0f 84 ee 00 00 00    	je     14000397c <__pformat_xint.isra.0+0x1fc>
   14000388e:	48 89 d8             	mov    %rbx,%rax
   140003891:	48 29 f8             	sub    %rdi,%rax
   140003894:	44 39 c8             	cmp    %r9d,%eax
   140003897:	0f 8c fb 00 00 00    	jl     140003998 <__pformat_xint.isra.0+0x218>
   14000389d:	c7 46 0c ff ff ff ff 	movl   $0xffffffff,0xc(%rsi)
   1400038a4:	41 83 fa 6f          	cmp    $0x6f,%r10d
   1400038a8:	0f 84 5a 01 00 00    	je     140003a08 <__pformat_xint.isra.0+0x288>
   1400038ae:	41 bd ff ff ff ff    	mov    $0xffffffff,%r13d
   1400038b4:	f6 46 09 08          	testb  $0x8,0x9(%rsi)
   1400038b8:	0f 85 ba 02 00 00    	jne    140003b78 <__pformat_xint.isra.0+0x3f8>
   1400038be:	48 39 df             	cmp    %rbx,%rdi
   1400038c1:	73 45                	jae    140003908 <__pformat_xint.isra.0+0x188>
   1400038c3:	45 8d 65 ff          	lea    -0x1(%r13),%r12d
   1400038c7:	66 0f 1f 84 00 00 00 	nopw   0x0(%rax,%rax,1)
   1400038ce:	00 00 
   1400038d0:	0f be 4b ff          	movsbl -0x1(%rbx),%ecx
   1400038d4:	48 83 eb 01          	sub    $0x1,%rbx
   1400038d8:	48 89 f2             	mov    %rsi,%rdx
   1400038db:	e8 00 ef ff ff       	call   1400027e0 <__pformat_putc>
   1400038e0:	48 39 fb             	cmp    %rdi,%rbx
   1400038e3:	77 eb                	ja     1400038d0 <__pformat_xint.isra.0+0x150>
   1400038e5:	45 85 ed             	test   %r13d,%r13d
   1400038e8:	7e 1e                	jle    140003908 <__pformat_xint.isra.0+0x188>
   1400038ea:	66 0f 1f 44 00 00    	nopw   0x0(%rax,%rax,1)
   1400038f0:	48 89 f2             	mov    %rsi,%rdx
   1400038f3:	b9 20 00 00 00       	mov    $0x20,%ecx
   1400038f8:	e8 e3 ee ff ff       	call   1400027e0 <__pformat_putc>
   1400038fd:	44 89 e0             	mov    %r12d,%eax
   140003900:	41 83 ec 01          	sub    $0x1,%r12d
   140003904:	85 c0                	test   %eax,%eax
   140003906:	7f e8                	jg     1400038f0 <__pformat_xint.isra.0+0x170>
   140003908:	48 8d 65 a8          	lea    -0x58(%rbp),%rsp
   14000390c:	5b                   	pop    %rbx
   14000390d:	5e                   	pop    %rsi
   14000390e:	5f                   	pop    %rdi
   14000390f:	41 5c                	pop    %r12
   140003911:	41 5d                	pop    %r13
   140003913:	41 5e                	pop    %r14
   140003915:	41 5f                	pop    %r15
   140003917:	5d                   	pop    %rbp
   140003918:	c3                   	ret    
   140003919:	0f 1f 80 00 00 00 00 	nopl   0x0(%rax)
   140003920:	66 41 83 78 20 00    	cmpw   $0x0,0x20(%r8)
   140003926:	0f 85 3c 02 00 00    	jne    140003b68 <__pformat_xint.isra.0+0x3e8>
   14000392c:	44 8b 4e 0c          	mov    0xc(%rsi),%r9d
   140003930:	44 39 c8             	cmp    %r9d,%eax
   140003933:	41 0f 4c c1          	cmovl  %r9d,%eax
   140003937:	48 98                	cltq   
   140003939:	48 83 c0 0f          	add    $0xf,%rax
   14000393d:	48 83 e0 f0          	and    $0xfffffffffffffff0,%rax
   140003941:	e8 fa ec ff ff       	call   140002640 <___chkstk_ms>
   140003946:	b9 04 00 00 00       	mov    $0x4,%ecx
   14000394b:	48 29 c4             	sub    %rax,%rsp
   14000394e:	48 8d 7c 24 20       	lea    0x20(%rsp),%rdi
   140003953:	e9 45 01 00 00       	jmp    140003a9d <__pformat_xint.isra.0+0x31d>
   140003958:	0f 1f 84 00 00 00 00 	nopl   0x0(%rax,%rax,1)
   14000395f:	00 
   140003960:	41 83 fa 6f          	cmp    $0x6f,%r10d
   140003964:	0f 84 56 01 00 00    	je     140003ac0 <__pformat_xint.isra.0+0x340>
   14000396a:	48 39 fb             	cmp    %rdi,%rbx
   14000396d:	0f 85 1b ff ff ff    	jne    14000388e <__pformat_xint.isra.0+0x10e>
   140003973:	45 85 db             	test   %r11d,%r11d
   140003976:	0f 84 12 ff ff ff    	je     14000388e <__pformat_xint.isra.0+0x10e>
   14000397c:	c6 03 30             	movb   $0x30,(%rbx)
   14000397f:	48 83 c3 01          	add    $0x1,%rbx
   140003983:	48 89 d8             	mov    %rbx,%rax
   140003986:	48 29 f8             	sub    %rdi,%rax
   140003989:	44 39 c8             	cmp    %r9d,%eax
   14000398c:	0f 8d 0b ff ff ff    	jge    14000389d <__pformat_xint.isra.0+0x11d>
   140003992:	66 0f 1f 44 00 00    	nopw   0x0(%rax,%rax,1)
   140003998:	41 29 c1             	sub    %eax,%r9d
   14000399b:	8b 56 08             	mov    0x8(%rsi),%edx
   14000399e:	44 89 4e 0c          	mov    %r9d,0xc(%rsi)
   1400039a2:	45 89 cd             	mov    %r9d,%r13d
   1400039a5:	41 83 fa 6f          	cmp    $0x6f,%r10d
   1400039a9:	0f 84 31 01 00 00    	je     140003ae0 <__pformat_xint.isra.0+0x360>
   1400039af:	f6 c6 08             	test   $0x8,%dh
   1400039b2:	0f 84 50 01 00 00    	je     140003b08 <__pformat_xint.isra.0+0x388>
   1400039b8:	41 83 ed 02          	sub    $0x2,%r13d
   1400039bc:	45 85 ed             	test   %r13d,%r13d
   1400039bf:	7e 09                	jle    1400039ca <__pformat_xint.isra.0+0x24a>
   1400039c1:	45 85 db             	test   %r11d,%r11d
   1400039c4:	0f 88 1e 02 00 00    	js     140003be8 <__pformat_xint.isra.0+0x468>
   1400039ca:	44 88 13             	mov    %r10b,(%rbx)
   1400039cd:	48 83 c3 02          	add    $0x2,%rbx
   1400039d1:	c6 43 ff 30          	movb   $0x30,-0x1(%rbx)
   1400039d5:	45 85 ed             	test   %r13d,%r13d
   1400039d8:	0f 8e e0 fe ff ff    	jle    1400038be <__pformat_xint.isra.0+0x13e>
   1400039de:	45 8d 65 ff          	lea    -0x1(%r13),%r12d
   1400039e2:	80 e6 04             	and    $0x4,%dh
   1400039e5:	0f 85 33 01 00 00    	jne    140003b1e <__pformat_xint.isra.0+0x39e>
   1400039eb:	0f 1f 44 00 00       	nopl   0x0(%rax,%rax,1)
   1400039f0:	48 89 f2             	mov    %rsi,%rdx
   1400039f3:	b9 20 00 00 00       	mov    $0x20,%ecx
   1400039f8:	e8 e3 ed ff ff       	call   1400027e0 <__pformat_putc>
   1400039fd:	44 89 e0             	mov    %r12d,%eax
   140003a00:	41 83 ec 01          	sub    $0x1,%r12d
   140003a04:	85 c0                	test   %eax,%eax
   140003a06:	7f e8                	jg     1400039f0 <__pformat_xint.isra.0+0x270>
   140003a08:	41 bc fe ff ff ff    	mov    $0xfffffffe,%r12d
   140003a0e:	41 bd ff ff ff ff    	mov    $0xffffffff,%r13d
   140003a14:	48 39 fb             	cmp    %rdi,%rbx
   140003a17:	0f 87 b3 fe ff ff    	ja     1400038d0 <__pformat_xint.isra.0+0x150>
   140003a1d:	e9 e6 fe ff ff       	jmp    140003908 <__pformat_xint.isra.0+0x188>
   140003a22:	66 0f 1f 44 00 00    	nopw   0x0(%rax,%rax,1)
   140003a28:	45 8b 58 10          	mov    0x10(%r8),%r11d
   140003a2c:	b8 00 00 00 00       	mov    $0x0,%eax
   140003a31:	45 8b 60 08          	mov    0x8(%r8),%r12d
   140003a35:	45 85 db             	test   %r11d,%r11d
   140003a38:	41 0f 49 c3          	cmovns %r11d,%eax
   140003a3c:	83 c0 18             	add    $0x18,%eax
   140003a3f:	41 f7 c4 00 10 00 00 	test   $0x1000,%r12d
   140003a46:	0f 84 e4 00 00 00    	je     140003b30 <__pformat_xint.isra.0+0x3b0>
   140003a4c:	66 41 83 78 20 00    	cmpw   $0x0,0x20(%r8)
   140003a52:	0f 84 ac 01 00 00    	je     140003c04 <__pformat_xint.isra.0+0x484>
   140003a58:	b9 03 00 00 00       	mov    $0x3,%ecx
   140003a5d:	41 89 c0             	mov    %eax,%r8d
   140003a60:	41 b9 ab aa aa aa    	mov    $0xaaaaaaab,%r9d
   140003a66:	4d 0f af c1          	imul   %r9,%r8
   140003a6a:	44 8b 4e 0c          	mov    0xc(%rsi),%r9d
   140003a6e:	49 c1 e8 21          	shr    $0x21,%r8
   140003a72:	44 01 c0             	add    %r8d,%eax
   140003a75:	44 39 c8             	cmp    %r9d,%eax
   140003a78:	41 0f 4c c1          	cmovl  %r9d,%eax
   140003a7c:	48 98                	cltq   
   140003a7e:	48 83 c0 0f          	add    $0xf,%rax
   140003a82:	48 83 e0 f0          	and    $0xfffffffffffffff0,%rax
   140003a86:	e8 b5 eb ff ff       	call   140002640 <___chkstk_ms>
   140003a8b:	48 29 c4             	sub    %rax,%rsp
   140003a8e:	48 8d 7c 24 20       	lea    0x20(%rsp),%rdi
   140003a93:	41 83 fa 6f          	cmp    $0x6f,%r10d
   140003a97:	0f 84 ba 00 00 00    	je     140003b57 <__pformat_xint.isra.0+0x3d7>
   140003a9d:	41 b8 0f 00 00 00    	mov    $0xf,%r8d
   140003aa3:	48 89 fb             	mov    %rdi,%rbx
   140003aa6:	48 85 d2             	test   %rdx,%rdx
   140003aa9:	0f 85 55 fd ff ff    	jne    140003804 <__pformat_xint.isra.0+0x84>
   140003aaf:	90                   	nop
   140003ab0:	41 81 e4 ff f7 ff ff 	and    $0xfffff7ff,%r12d
   140003ab7:	44 89 66 08          	mov    %r12d,0x8(%rsi)
   140003abb:	e9 82 fd ff ff       	jmp    140003842 <__pformat_xint.isra.0+0xc2>
   140003ac0:	f6 46 09 08          	testb  $0x8,0x9(%rsi)
   140003ac4:	0f 84 a0 fe ff ff    	je     14000396a <__pformat_xint.isra.0+0x1ea>
   140003aca:	c6 03 30             	movb   $0x30,(%rbx)
   140003acd:	48 83 c3 01          	add    $0x1,%rbx
   140003ad1:	e9 94 fe ff ff       	jmp    14000396a <__pformat_xint.isra.0+0x1ea>
   140003ad6:	66 2e 0f 1f 84 00 00 	cs nopw 0x0(%rax,%rax,1)
   140003add:	00 00 00 
   140003ae0:	45 85 db             	test   %r11d,%r11d
   140003ae3:	0f 88 9f 00 00 00    	js     140003b88 <__pformat_xint.isra.0+0x408>
   140003ae9:	45 8d 65 ff          	lea    -0x1(%r13),%r12d
   140003aed:	80 e6 04             	and    $0x4,%dh
   140003af0:	0f 84 fa fe ff ff    	je     1400039f0 <__pformat_xint.isra.0+0x270>
   140003af6:	48 39 fb             	cmp    %rdi,%rbx
   140003af9:	0f 87 d1 fd ff ff    	ja     1400038d0 <__pformat_xint.isra.0+0x150>
   140003aff:	e9 ec fd ff ff       	jmp    1400038f0 <__pformat_xint.isra.0+0x170>
   140003b04:	0f 1f 40 00          	nopl   0x0(%rax)
   140003b08:	45 85 db             	test   %r11d,%r11d
   140003b0b:	0f 88 d7 00 00 00    	js     140003be8 <__pformat_xint.isra.0+0x468>
   140003b11:	45 8d 65 ff          	lea    -0x1(%r13),%r12d
   140003b15:	80 e6 04             	and    $0x4,%dh
   140003b18:	0f 84 d2 fe ff ff    	je     1400039f0 <__pformat_xint.isra.0+0x270>
   140003b1e:	48 39 df             	cmp    %rbx,%rdi
   140003b21:	0f 82 a9 fd ff ff    	jb     1400038d0 <__pformat_xint.isra.0+0x150>
   140003b27:	e9 c4 fd ff ff       	jmp    1400038f0 <__pformat_xint.isra.0+0x170>
   140003b2c:	0f 1f 40 00          	nopl   0x0(%rax)
   140003b30:	44 8b 4e 0c          	mov    0xc(%rsi),%r9d
   140003b34:	41 39 c1             	cmp    %eax,%r9d
   140003b37:	41 0f 4d c1          	cmovge %r9d,%eax
   140003b3b:	48 98                	cltq   
   140003b3d:	48 83 c0 0f          	add    $0xf,%rax
   140003b41:	48 83 e0 f0          	and    $0xfffffffffffffff0,%rax
   140003b45:	e8 f6 ea ff ff       	call   140002640 <___chkstk_ms>
   140003b4a:	b9 03 00 00 00       	mov    $0x3,%ecx
   140003b4f:	48 29 c4             	sub    %rax,%rsp
   140003b52:	48 8d 7c 24 20       	lea    0x20(%rsp),%rdi
   140003b57:	41 b8 07 00 00 00    	mov    $0x7,%r8d
   140003b5d:	e9 96 fc ff ff       	jmp    1400037f8 <__pformat_xint.isra.0+0x78>
   140003b62:	66 0f 1f 44 00 00    	nopw   0x0(%rax,%rax,1)
   140003b68:	b9 04 00 00 00       	mov    $0x4,%ecx
   140003b6d:	e9 eb fe ff ff       	jmp    140003a5d <__pformat_xint.isra.0+0x2dd>
   140003b72:	66 0f 1f 44 00 00    	nopw   0x0(%rax,%rax,1)
   140003b78:	44 88 13             	mov    %r10b,(%rbx)
   140003b7b:	48 83 c3 02          	add    $0x2,%rbx
   140003b7f:	c6 43 ff 30          	movb   $0x30,-0x1(%rbx)
   140003b83:	e9 36 fd ff ff       	jmp    1400038be <__pformat_xint.isra.0+0x13e>
   140003b88:	89 d0                	mov    %edx,%eax
   140003b8a:	25 00 06 00 00       	and    $0x600,%eax
   140003b8f:	3d 00 02 00 00       	cmp    $0x200,%eax
   140003b94:	0f 85 4f ff ff ff    	jne    140003ae9 <__pformat_xint.isra.0+0x369>
   140003b9a:	45 8d 45 ff          	lea    -0x1(%r13),%r8d
   140003b9e:	44 89 c0             	mov    %r8d,%eax
   140003ba1:	48 8d 4c 03 01       	lea    0x1(%rbx,%rax,1),%rcx
   140003ba6:	48 89 d8             	mov    %rbx,%rax
   140003ba9:	0f 1f 80 00 00 00 00 	nopl   0x0(%rax)
   140003bb0:	48 83 c0 01          	add    $0x1,%rax
   140003bb4:	c6 40 ff 30          	movb   $0x30,-0x1(%rax)
   140003bb8:	48 39 c8             	cmp    %rcx,%rax
   140003bbb:	75 f3                	jne    140003bb0 <__pformat_xint.isra.0+0x430>
   140003bbd:	49 63 c0             	movslq %r8d,%rax
   140003bc0:	45 29 e8             	sub    %r13d,%r8d
   140003bc3:	48 8d 5c 03 01       	lea    0x1(%rbx,%rax,1),%rbx
   140003bc8:	45 89 c5             	mov    %r8d,%r13d
   140003bcb:	41 83 fa 6f          	cmp    $0x6f,%r10d
   140003bcf:	0f 84 00 fe ff ff    	je     1400039d5 <__pformat_xint.isra.0+0x255>
   140003bd5:	f6 c6 08             	test   $0x8,%dh
   140003bd8:	0f 84 f7 fd ff ff    	je     1400039d5 <__pformat_xint.isra.0+0x255>
   140003bde:	e9 e7 fd ff ff       	jmp    1400039ca <__pformat_xint.isra.0+0x24a>
   140003be3:	0f 1f 44 00 00       	nopl   0x0(%rax,%rax,1)
   140003be8:	89 d0                	mov    %edx,%eax
   140003bea:	25 00 06 00 00       	and    $0x600,%eax
   140003bef:	3d 00 02 00 00       	cmp    $0x200,%eax
   140003bf4:	74 a4                	je     140003b9a <__pformat_xint.isra.0+0x41a>
   140003bf6:	f6 c6 08             	test   $0x8,%dh
   140003bf9:	0f 85 cb fd ff ff    	jne    1400039ca <__pformat_xint.isra.0+0x24a>
   140003bff:	e9 0d ff ff ff       	jmp    140003b11 <__pformat_xint.isra.0+0x391>
   140003c04:	44 8b 4e 0c          	mov    0xc(%rsi),%r9d
   140003c08:	44 39 c8             	cmp    %r9d,%eax
   140003c0b:	41 0f 4c c1          	cmovl  %r9d,%eax
   140003c0f:	e9 27 ff ff ff       	jmp    140003b3b <__pformat_xint.isra.0+0x3bb>
   140003c14:	66 66 2e 0f 1f 84 00 	data16 cs nopw 0x0(%rax,%rax,1)
   140003c1b:	00 00 00 00 
   140003c1f:	90                   	nop

0000000140003c20 <__pformat_xldouble>:
   140003c20:	41 55                	push   %r13
   140003c22:	41 54                	push   %r12
   140003c24:	55                   	push   %rbp
   140003c25:	57                   	push   %rdi
   140003c26:	56                   	push   %rsi
   140003c27:	53                   	push   %rbx
   140003c28:	48 83 ec 68          	sub    $0x68,%rsp
   140003c2c:	4c 8b 11             	mov    (%rcx),%r10
   140003c2f:	44 8b 59 08          	mov    0x8(%rcx),%r11d
   140003c33:	41 0f bf cb          	movswl %r11w,%ecx
   140003c37:	4c 89 de             	mov    %r11,%rsi
   140003c3a:	44 8d 04 09          	lea    (%rcx,%rcx,1),%r8d
   140003c3e:	49 89 d4             	mov    %rdx,%r12
   140003c41:	4c 89 d2             	mov    %r10,%rdx
   140003c44:	45 0f b7 c0          	movzwl %r8w,%r8d
   140003c48:	4c 89 54 24 30       	mov    %r10,0x30(%rsp)
   140003c4d:	48 c1 ea 20          	shr    $0x20,%rdx
   140003c51:	44 89 5c 24 38       	mov    %r11d,0x38(%rsp)
   140003c56:	81 e2 ff ff ff 7f    	and    $0x7fffffff,%edx
   140003c5c:	44 09 d2             	or     %r10d,%edx
   140003c5f:	89 d0                	mov    %edx,%eax
   140003c61:	f7 d8                	neg    %eax
   140003c63:	09 d0                	or     %edx,%eax
   140003c65:	c1 e8 1f             	shr    $0x1f,%eax
   140003c68:	44 09 c0             	or     %r8d,%eax
   140003c6b:	41 b8 fe ff 00 00    	mov    $0xfffe,%r8d
   140003c71:	41 29 c0             	sub    %eax,%r8d
   140003c74:	44 89 c0             	mov    %r8d,%eax
   140003c77:	c1 e8 10             	shr    $0x10,%eax
   140003c7a:	0f 85 d8 02 00 00    	jne    140003f58 <__pformat_xldouble+0x338>
   140003c80:	66 45 85 db          	test   %r11w,%r11w
   140003c84:	0f 88 d6 01 00 00    	js     140003e60 <__pformat_xldouble+0x240>
   140003c8a:	66 81 e6 ff 7f       	and    $0x7fff,%si
   140003c8f:	0f 85 a3 01 00 00    	jne    140003e38 <__pformat_xldouble+0x218>
   140003c95:	4d 85 d2             	test   %r10,%r10
   140003c98:	0f 85 42 03 00 00    	jne    140003fe0 <__pformat_xldouble+0x3c0>
   140003c9e:	41 8b 54 24 10       	mov    0x10(%r12),%edx
   140003ca3:	83 fa 0e             	cmp    $0xe,%edx
   140003ca6:	0f 86 f4 01 00 00    	jbe    140003ea0 <__pformat_xldouble+0x280>
   140003cac:	41 8b 54 24 08       	mov    0x8(%r12),%edx
   140003cb1:	48 8d 7c 24 40       	lea    0x40(%rsp),%rdi
   140003cb6:	41 8b 44 24 10       	mov    0x10(%r12),%eax
   140003cbb:	85 c0                	test   %eax,%eax
   140003cbd:	0f 8e ad 04 00 00    	jle    140004170 <__pformat_xldouble+0x550>
   140003cc3:	c6 44 24 40 2e       	movb   $0x2e,0x40(%rsp)
   140003cc8:	48 8d 44 24 41       	lea    0x41(%rsp),%rax
   140003ccd:	c6 00 30             	movb   $0x30,(%rax)
   140003cd0:	48 8d 58 01          	lea    0x1(%rax),%rbx
   140003cd4:	45 8b 44 24 0c       	mov    0xc(%r12),%r8d
   140003cd9:	bd 02 00 00 00       	mov    $0x2,%ebp
   140003cde:	45 85 c0             	test   %r8d,%r8d
   140003ce1:	0f 8e 89 00 00 00    	jle    140003d70 <__pformat_xldouble+0x150>
   140003ce7:	45 8b 4c 24 10       	mov    0x10(%r12),%r9d
   140003cec:	48 89 d8             	mov    %rbx,%rax
   140003cef:	0f bf ce             	movswl %si,%ecx
   140003cf2:	48 29 f8             	sub    %rdi,%rax
   140003cf5:	45 8d 14 01          	lea    (%r9,%rax,1),%r10d
   140003cf9:	45 85 c9             	test   %r9d,%r9d
   140003cfc:	41 0f 4f c2          	cmovg  %r10d,%eax
   140003d00:	45 31 c9             	xor    %r9d,%r9d
   140003d03:	f7 c2 c0 01 00 00    	test   $0x1c0,%edx
   140003d09:	41 0f 95 c1          	setne  %r9b
   140003d0d:	c1 f9 1f             	sar    $0x1f,%ecx
   140003d10:	46 8d 4c 08 05       	lea    0x5(%rax,%r9,1),%r9d
   140003d15:	48 0f bf c6          	movswq %si,%rax
   140003d19:	48 69 c0 67 66 66 66 	imul   $0x66666667,%rax,%rax
   140003d20:	45 89 ca             	mov    %r9d,%r10d
   140003d23:	48 c1 f8 22          	sar    $0x22,%rax
   140003d27:	29 c8                	sub    %ecx,%eax
   140003d29:	74 2a                	je     140003d55 <__pformat_xldouble+0x135>
   140003d2b:	0f 1f 44 00 00       	nopl   0x0(%rax,%rax,1)
   140003d30:	48 63 c8             	movslq %eax,%rcx
   140003d33:	41 83 c2 01          	add    $0x1,%r10d
   140003d37:	c1 f8 1f             	sar    $0x1f,%eax
   140003d3a:	48 69 c9 67 66 66 66 	imul   $0x66666667,%rcx,%rcx
   140003d41:	41 8d 6a 02          	lea    0x2(%r10),%ebp
   140003d45:	44 29 cd             	sub    %r9d,%ebp
   140003d48:	48 c1 f9 22          	sar    $0x22,%rcx
   140003d4c:	29 c1                	sub    %eax,%ecx
   140003d4e:	89 c8                	mov    %ecx,%eax
   140003d50:	75 de                	jne    140003d30 <__pformat_xldouble+0x110>
   140003d52:	0f bf ed             	movswl %bp,%ebp
   140003d55:	45 39 d0             	cmp    %r10d,%r8d
   140003d58:	0f 8e 7a 03 00 00    	jle    1400040d8 <__pformat_xldouble+0x4b8>
   140003d5e:	45 29 d0             	sub    %r10d,%r8d
   140003d61:	f6 c6 06             	test   $0x6,%dh
   140003d64:	0f 84 be 03 00 00    	je     140004128 <__pformat_xldouble+0x508>
   140003d6a:	45 89 44 24 0c       	mov    %r8d,0xc(%r12)
   140003d6f:	90                   	nop
   140003d70:	f6 c2 80             	test   $0x80,%dl
   140003d73:	0f 85 47 03 00 00    	jne    1400040c0 <__pformat_xldouble+0x4a0>
   140003d79:	f6 c6 01             	test   $0x1,%dh
   140003d7c:	0f 85 6e 03 00 00    	jne    1400040f0 <__pformat_xldouble+0x4d0>
   140003d82:	83 e2 40             	and    $0x40,%edx
   140003d85:	0f 85 85 03 00 00    	jne    140004110 <__pformat_xldouble+0x4f0>
   140003d8b:	4c 89 e2             	mov    %r12,%rdx
   140003d8e:	b9 30 00 00 00       	mov    $0x30,%ecx
   140003d93:	e8 48 ea ff ff       	call   1400027e0 <__pformat_putc>
   140003d98:	41 8b 4c 24 08       	mov    0x8(%r12),%ecx
   140003d9d:	4c 89 e2             	mov    %r12,%rdx
   140003da0:	83 e1 20             	and    $0x20,%ecx
   140003da3:	83 c9 58             	or     $0x58,%ecx
   140003da6:	e8 35 ea ff ff       	call   1400027e0 <__pformat_putc>
   140003dab:	41 8b 44 24 0c       	mov    0xc(%r12),%eax
   140003db0:	85 c0                	test   %eax,%eax
   140003db2:	7e 32                	jle    140003de6 <__pformat_xldouble+0x1c6>
   140003db4:	41 f6 44 24 09 02    	testb  $0x2,0x9(%r12)
   140003dba:	74 2a                	je     140003de6 <__pformat_xldouble+0x1c6>
   140003dbc:	83 e8 01             	sub    $0x1,%eax
   140003dbf:	41 89 44 24 0c       	mov    %eax,0xc(%r12)
   140003dc4:	0f 1f 40 00          	nopl   0x0(%rax)
   140003dc8:	4c 89 e2             	mov    %r12,%rdx
   140003dcb:	b9 30 00 00 00       	mov    $0x30,%ecx
   140003dd0:	e8 0b ea ff ff       	call   1400027e0 <__pformat_putc>
   140003dd5:	41 8b 44 24 0c       	mov    0xc(%r12),%eax
   140003dda:	8d 50 ff             	lea    -0x1(%rax),%edx
   140003ddd:	41 89 54 24 0c       	mov    %edx,0xc(%r12)
   140003de2:	85 c0                	test   %eax,%eax
   140003de4:	7f e2                	jg     140003dc8 <__pformat_xldouble+0x1a8>
   140003de6:	4c 8d 6c 24 2e       	lea    0x2e(%rsp),%r13
   140003deb:	48 39 fb             	cmp    %rdi,%rbx
   140003dee:	77 25                	ja     140003e15 <__pformat_xldouble+0x1f5>
   140003df0:	e9 98 01 00 00       	jmp    140003f8d <__pformat_xldouble+0x36d>
   140003df5:	0f 1f 00             	nopl   (%rax)
   140003df8:	41 0f b7 44 24 20    	movzwl 0x20(%r12),%eax
   140003dfe:	66 89 44 24 2e       	mov    %ax,0x2e(%rsp)
   140003e03:	66 85 c0             	test   %ax,%ax
   140003e06:	0f 85 84 02 00 00    	jne    140004090 <__pformat_xldouble+0x470>
   140003e0c:	48 39 fb             	cmp    %rdi,%rbx
   140003e0f:	0f 84 78 01 00 00    	je     140003f8d <__pformat_xldouble+0x36d>
   140003e15:	0f be 4b ff          	movsbl -0x1(%rbx),%ecx
   140003e19:	48 83 eb 01          	sub    $0x1,%rbx
   140003e1d:	83 f9 2e             	cmp    $0x2e,%ecx
   140003e20:	0f 84 0a 02 00 00    	je     140004030 <__pformat_xldouble+0x410>
   140003e26:	83 f9 2c             	cmp    $0x2c,%ecx
   140003e29:	74 cd                	je     140003df8 <__pformat_xldouble+0x1d8>
   140003e2b:	4c 89 e2             	mov    %r12,%rdx
   140003e2e:	e8 ad e9 ff ff       	call   1400027e0 <__pformat_putc>
   140003e33:	eb d7                	jmp    140003e0c <__pformat_xldouble+0x1ec>
   140003e35:	0f 1f 00             	nopl   (%rax)
   140003e38:	85 d2                	test   %edx,%edx
   140003e3a:	75 44                	jne    140003e80 <__pformat_xldouble+0x260>
   140003e3c:	66 81 fe ff 7f       	cmp    $0x7fff,%si
   140003e41:	75 3d                	jne    140003e80 <__pformat_xldouble+0x260>
   140003e43:	81 e1 00 80 00 00    	and    $0x8000,%ecx
   140003e49:	4d 89 e0             	mov    %r12,%r8
   140003e4c:	48 8d 15 b8 54 00 00 	lea    0x54b8(%rip),%rdx        # 14000930b <.rdata+0xb>
   140003e53:	e8 58 ec ff ff       	call   140002ab0 <__pformat_emit_inf_or_nan>
   140003e58:	e9 0d 01 00 00       	jmp    140003f6a <__pformat_xldouble+0x34a>
   140003e5d:	0f 1f 00             	nopl   (%rax)
   140003e60:	41 81 4c 24 08 80 00 	orl    $0x80,0x8(%r12)
   140003e67:	00 00 
   140003e69:	66 81 e6 ff 7f       	and    $0x7fff,%si
   140003e6e:	0f 84 21 fe ff ff    	je     140003c95 <__pformat_xldouble+0x75>
   140003e74:	eb c2                	jmp    140003e38 <__pformat_xldouble+0x218>
   140003e76:	66 2e 0f 1f 84 00 00 	cs nopw 0x0(%rax,%rax,1)
   140003e7d:	00 00 00 
   140003e80:	41 8b 54 24 10       	mov    0x10(%r12),%edx
   140003e85:	4c 8b 54 24 30       	mov    0x30(%rsp),%r10
   140003e8a:	66 81 ee ff 3f       	sub    $0x3fff,%si
   140003e8f:	83 fa 0e             	cmp    $0xe,%edx
   140003e92:	0f 87 80 01 00 00    	ja     140004018 <__pformat_xldouble+0x3f8>
   140003e98:	4d 85 d2             	test   %r10,%r10
   140003e9b:	78 08                	js     140003ea5 <__pformat_xldouble+0x285>
   140003e9d:	0f 1f 00             	nopl   (%rax)
   140003ea0:	4d 01 d2             	add    %r10,%r10
   140003ea3:	79 fb                	jns    140003ea0 <__pformat_xldouble+0x280>
   140003ea5:	b9 0e 00 00 00       	mov    $0xe,%ecx
   140003eaa:	b8 04 00 00 00       	mov    $0x4,%eax
   140003eaf:	49 d1 ea             	shr    %r10
   140003eb2:	29 d1                	sub    %edx,%ecx
   140003eb4:	c1 e1 02             	shl    $0x2,%ecx
   140003eb7:	48 d3 e0             	shl    %cl,%rax
   140003eba:	49 01 c2             	add    %rax,%r10
   140003ebd:	0f 88 45 02 00 00    	js     140004108 <__pformat_xldouble+0x4e8>
   140003ec3:	4d 01 d2             	add    %r10,%r10
   140003ec6:	b9 0f 00 00 00       	mov    $0xf,%ecx
   140003ecb:	29 d1                	sub    %edx,%ecx
   140003ecd:	41 8b 54 24 08       	mov    0x8(%r12),%edx
   140003ed2:	c1 e1 02             	shl    $0x2,%ecx
   140003ed5:	49 d3 ea             	shr    %cl,%r10
   140003ed8:	48 8d 7c 24 40       	lea    0x40(%rsp),%rdi
   140003edd:	41 89 d1             	mov    %edx,%r9d
   140003ee0:	41 89 d0             	mov    %edx,%r8d
   140003ee3:	48 89 fb             	mov    %rdi,%rbx
   140003ee6:	41 81 e1 00 08 00 00 	and    $0x800,%r9d
   140003eed:	41 83 e0 20          	and    $0x20,%r8d
   140003ef1:	eb 27                	jmp    140003f1a <__pformat_xldouble+0x2fa>
   140003ef3:	0f 1f 44 00 00       	nopl   0x0(%rax,%rax,1)
   140003ef8:	31 c0                	xor    %eax,%eax
   140003efa:	48 39 fb             	cmp    %rdi,%rbx
   140003efd:	77 09                	ja     140003f08 <__pformat_xldouble+0x2e8>
   140003eff:	41 8b 4c 24 10       	mov    0x10(%r12),%ecx
   140003f04:	85 c9                	test   %ecx,%ecx
   140003f06:	78 09                	js     140003f11 <__pformat_xldouble+0x2f1>
   140003f08:	83 c0 30             	add    $0x30,%eax
   140003f0b:	88 03                	mov    %al,(%rbx)
   140003f0d:	48 83 c3 01          	add    $0x1,%rbx
   140003f11:	4d 85 d2             	test   %r10,%r10
   140003f14:	0f 84 8e 01 00 00    	je     1400040a8 <__pformat_xldouble+0x488>
   140003f1a:	44 89 d1             	mov    %r10d,%ecx
   140003f1d:	83 e1 0f             	and    $0xf,%ecx
   140003f20:	49 f7 c2 f0 ff ff ff 	test   $0xfffffffffffffff0,%r10
   140003f27:	0f 84 13 01 00 00    	je     140004040 <__pformat_xldouble+0x420>
   140003f2d:	41 8b 44 24 10       	mov    0x10(%r12),%eax
   140003f32:	49 c1 ea 04          	shr    $0x4,%r10
   140003f36:	85 c0                	test   %eax,%eax
   140003f38:	7e 08                	jle    140003f42 <__pformat_xldouble+0x322>
   140003f3a:	83 e8 01             	sub    $0x1,%eax
   140003f3d:	41 89 44 24 10       	mov    %eax,0x10(%r12)
   140003f42:	85 c9                	test   %ecx,%ecx
   140003f44:	74 b2                	je     140003ef8 <__pformat_xldouble+0x2d8>
   140003f46:	89 c8                	mov    %ecx,%eax
   140003f48:	83 f9 09             	cmp    $0x9,%ecx
   140003f4b:	76 bb                	jbe    140003f08 <__pformat_xldouble+0x2e8>
   140003f4d:	8d 41 37             	lea    0x37(%rcx),%eax
   140003f50:	44 09 c0             	or     %r8d,%eax
   140003f53:	eb b6                	jmp    140003f0b <__pformat_xldouble+0x2eb>
   140003f55:	0f 1f 00             	nopl   (%rax)
   140003f58:	4d 89 e0             	mov    %r12,%r8
   140003f5b:	48 8d 15 a5 53 00 00 	lea    0x53a5(%rip),%rdx        # 140009307 <.rdata+0x7>
   140003f62:	31 c9                	xor    %ecx,%ecx
   140003f64:	e8 47 eb ff ff       	call   140002ab0 <__pformat_emit_inf_or_nan>
   140003f69:	90                   	nop
   140003f6a:	48 83 c4 68          	add    $0x68,%rsp
   140003f6e:	5b                   	pop    %rbx
   140003f6f:	5e                   	pop    %rsi
   140003f70:	5f                   	pop    %rdi
   140003f71:	5d                   	pop    %rbp
   140003f72:	41 5c                	pop    %r12
   140003f74:	41 5d                	pop    %r13
   140003f76:	c3                   	ret    
   140003f77:	66 0f 1f 84 00 00 00 	nopw   0x0(%rax,%rax,1)
   140003f7e:	00 00 
   140003f80:	4c 89 e2             	mov    %r12,%rdx
   140003f83:	b9 30 00 00 00       	mov    $0x30,%ecx
   140003f88:	e8 53 e8 ff ff       	call   1400027e0 <__pformat_putc>
   140003f8d:	41 8b 44 24 10       	mov    0x10(%r12),%eax
   140003f92:	8d 50 ff             	lea    -0x1(%rax),%edx
   140003f95:	41 89 54 24 10       	mov    %edx,0x10(%r12)
   140003f9a:	85 c0                	test   %eax,%eax
   140003f9c:	7f e2                	jg     140003f80 <__pformat_xldouble+0x360>
   140003f9e:	41 8b 4c 24 08       	mov    0x8(%r12),%ecx
   140003fa3:	4c 89 e2             	mov    %r12,%rdx
   140003fa6:	83 e1 20             	and    $0x20,%ecx
   140003fa9:	83 c9 50             	or     $0x50,%ecx
   140003fac:	e8 2f e8 ff ff       	call   1400027e0 <__pformat_putc>
   140003fb1:	41 01 6c 24 0c       	add    %ebp,0xc(%r12)
   140003fb6:	48 0f bf ce          	movswq %si,%rcx
   140003fba:	4c 89 e2             	mov    %r12,%rdx
   140003fbd:	41 81 4c 24 08 c0 01 	orl    $0x1c0,0x8(%r12)
   140003fc4:	00 00 
   140003fc6:	e8 35 f1 ff ff       	call   140003100 <__pformat_int.isra.0>
   140003fcb:	90                   	nop
   140003fcc:	48 83 c4 68          	add    $0x68,%rsp
   140003fd0:	5b                   	pop    %rbx
   140003fd1:	5e                   	pop    %rsi
   140003fd2:	5f                   	pop    %rdi
   140003fd3:	5d                   	pop    %rbp
   140003fd4:	41 5c                	pop    %r12
   140003fd6:	41 5d                	pop    %r13
   140003fd8:	c3                   	ret    
   140003fd9:	0f 1f 80 00 00 00 00 	nopl   0x0(%rax)
   140003fe0:	0f 88 a2 01 00 00    	js     140004188 <__pformat_xldouble+0x568>
   140003fe6:	b8 01 c0 ff ff       	mov    $0xffffc001,%eax
   140003feb:	0f 1f 44 00 00       	nopl   0x0(%rax,%rax,1)
   140003ff0:	89 c6                	mov    %eax,%esi
   140003ff2:	83 e8 01             	sub    $0x1,%eax
   140003ff5:	4d 01 d2             	add    %r10,%r10
   140003ff8:	79 f6                	jns    140003ff0 <__pformat_xldouble+0x3d0>
   140003ffa:	41 8b 54 24 10       	mov    0x10(%r12),%edx
   140003fff:	83 fa 0e             	cmp    $0xe,%edx
   140004002:	0f 86 9d fe ff ff    	jbe    140003ea5 <__pformat_xldouble+0x285>
   140004008:	41 8b 54 24 08       	mov    0x8(%r12),%edx
   14000400d:	e9 c6 fe ff ff       	jmp    140003ed8 <__pformat_xldouble+0x2b8>
   140004012:	66 0f 1f 44 00 00    	nopw   0x0(%rax,%rax,1)
   140004018:	41 8b 54 24 08       	mov    0x8(%r12),%edx
   14000401d:	48 8d 7c 24 40       	lea    0x40(%rsp),%rdi
   140004022:	4d 85 d2             	test   %r10,%r10
   140004025:	0f 85 ad fe ff ff    	jne    140003ed8 <__pformat_xldouble+0x2b8>
   14000402b:	e9 86 fc ff ff       	jmp    140003cb6 <__pformat_xldouble+0x96>
   140004030:	4c 89 e1             	mov    %r12,%rcx
   140004033:	e8 28 eb ff ff       	call   140002b60 <__pformat_emit_radix_point>
   140004038:	e9 cf fd ff ff       	jmp    140003e0c <__pformat_xldouble+0x1ec>
   14000403d:	0f 1f 00             	nopl   (%rax)
   140004040:	48 39 fb             	cmp    %rdi,%rbx
   140004043:	77 13                	ja     140004058 <__pformat_xldouble+0x438>
   140004045:	45 85 c9             	test   %r9d,%r9d
   140004048:	75 0e                	jne    140004058 <__pformat_xldouble+0x438>
   14000404a:	45 8b 5c 24 10       	mov    0x10(%r12),%r11d
   14000404f:	45 85 db             	test   %r11d,%r11d
   140004052:	7e 0b                	jle    14000405f <__pformat_xldouble+0x43f>
   140004054:	0f 1f 40 00          	nopl   0x0(%rax)
   140004058:	c6 03 2e             	movb   $0x2e,(%rbx)
   14000405b:	48 83 c3 01          	add    $0x1,%rbx
   14000405f:	8d 46 ff             	lea    -0x1(%rsi),%eax
   140004062:	49 83 fa 01          	cmp    $0x1,%r10
   140004066:	74 16                	je     14000407e <__pformat_xldouble+0x45e>
   140004068:	0f 1f 84 00 00 00 00 	nopl   0x0(%rax,%rax,1)
   14000406f:	00 
   140004070:	89 c6                	mov    %eax,%esi
   140004072:	49 d1 ea             	shr    %r10
   140004075:	8d 46 ff             	lea    -0x1(%rsi),%eax
   140004078:	49 83 fa 01          	cmp    $0x1,%r10
   14000407c:	75 f2                	jne    140004070 <__pformat_xldouble+0x450>
   14000407e:	45 31 d2             	xor    %r10d,%r10d
   140004081:	e9 bc fe ff ff       	jmp    140003f42 <__pformat_xldouble+0x322>
   140004086:	66 2e 0f 1f 84 00 00 	cs nopw 0x0(%rax,%rax,1)
   14000408d:	00 00 00 
   140004090:	4d 89 e0             	mov    %r12,%r8
   140004093:	ba 01 00 00 00       	mov    $0x1,%edx
   140004098:	4c 89 e9             	mov    %r13,%rcx
   14000409b:	e8 a0 e7 ff ff       	call   140002840 <__pformat_wputchars>
   1400040a0:	e9 67 fd ff ff       	jmp    140003e0c <__pformat_xldouble+0x1ec>
   1400040a5:	0f 1f 00             	nopl   (%rax)
   1400040a8:	48 39 fb             	cmp    %rdi,%rbx
   1400040ab:	0f 85 23 fc ff ff    	jne    140003cd4 <__pformat_xldouble+0xb4>
   1400040b1:	e9 00 fc ff ff       	jmp    140003cb6 <__pformat_xldouble+0x96>
   1400040b6:	66 2e 0f 1f 84 00 00 	cs nopw 0x0(%rax,%rax,1)
   1400040bd:	00 00 00 
   1400040c0:	4c 89 e2             	mov    %r12,%rdx
   1400040c3:	b9 2d 00 00 00       	mov    $0x2d,%ecx
   1400040c8:	e8 13 e7 ff ff       	call   1400027e0 <__pformat_putc>
   1400040cd:	e9 b9 fc ff ff       	jmp    140003d8b <__pformat_xldouble+0x16b>
   1400040d2:	66 0f 1f 44 00 00    	nopw   0x0(%rax,%rax,1)
   1400040d8:	41 c7 44 24 0c ff ff 	movl   $0xffffffff,0xc(%r12)
   1400040df:	ff ff 
   1400040e1:	e9 8a fc ff ff       	jmp    140003d70 <__pformat_xldouble+0x150>
   1400040e6:	66 2e 0f 1f 84 00 00 	cs nopw 0x0(%rax,%rax,1)
   1400040ed:	00 00 00 
   1400040f0:	4c 89 e2             	mov    %r12,%rdx
   1400040f3:	b9 2b 00 00 00       	mov    $0x2b,%ecx
   1400040f8:	e8 e3 e6 ff ff       	call   1400027e0 <__pformat_putc>
   1400040fd:	e9 89 fc ff ff       	jmp    140003d8b <__pformat_xldouble+0x16b>
   140004102:	66 0f 1f 44 00 00    	nopw   0x0(%rax,%rax,1)
   140004108:	83 c6 01             	add    $0x1,%esi
   14000410b:	e9 b6 fd ff ff       	jmp    140003ec6 <__pformat_xldouble+0x2a6>
   140004110:	4c 89 e2             	mov    %r12,%rdx
   140004113:	b9 20 00 00 00       	mov    $0x20,%ecx
   140004118:	e8 c3 e6 ff ff       	call   1400027e0 <__pformat_putc>
   14000411d:	e9 69 fc ff ff       	jmp    140003d8b <__pformat_xldouble+0x16b>
   140004122:	66 0f 1f 44 00 00    	nopw   0x0(%rax,%rax,1)
   140004128:	41 8d 40 ff          	lea    -0x1(%r8),%eax
   14000412c:	41 89 44 24 0c       	mov    %eax,0xc(%r12)
   140004131:	45 85 c0             	test   %r8d,%r8d
   140004134:	0f 8e 36 fc ff ff    	jle    140003d70 <__pformat_xldouble+0x150>
   14000413a:	66 0f 1f 44 00 00    	nopw   0x0(%rax,%rax,1)
   140004140:	4c 89 e2             	mov    %r12,%rdx
   140004143:	b9 20 00 00 00       	mov    $0x20,%ecx
   140004148:	e8 93 e6 ff ff       	call   1400027e0 <__pformat_putc>
   14000414d:	41 8b 44 24 0c       	mov    0xc(%r12),%eax
   140004152:	8d 50 ff             	lea    -0x1(%rax),%edx
   140004155:	41 89 54 24 0c       	mov    %edx,0xc(%r12)
   14000415a:	85 c0                	test   %eax,%eax
   14000415c:	7f e2                	jg     140004140 <__pformat_xldouble+0x520>
   14000415e:	41 8b 54 24 08       	mov    0x8(%r12),%edx
   140004163:	e9 08 fc ff ff       	jmp    140003d70 <__pformat_xldouble+0x150>
   140004168:	0f 1f 84 00 00 00 00 	nopl   0x0(%rax,%rax,1)
   14000416f:	00 
   140004170:	48 89 f8             	mov    %rdi,%rax
   140004173:	f6 c6 08             	test   $0x8,%dh
   140004176:	0f 84 51 fb ff ff    	je     140003ccd <__pformat_xldouble+0xad>
   14000417c:	e9 42 fb ff ff       	jmp    140003cc3 <__pformat_xldouble+0xa3>
   140004181:	0f 1f 80 00 00 00 00 	nopl   0x0(%rax)
   140004188:	be 02 c0 ff ff       	mov    $0xffffc002,%esi
   14000418d:	e9 68 fe ff ff       	jmp    140003ffa <__pformat_xldouble+0x3da>
   140004192:	66 66 2e 0f 1f 84 00 	data16 cs nopw 0x0(%rax,%rax,1)
   140004199:	00 00 00 00 
   14000419d:	0f 1f 00             	nopl   (%rax)

00000001400041a0 <__mingw_pformat>:
   1400041a0:	41 57                	push   %r15
   1400041a2:	41 56                	push   %r14
   1400041a4:	41 55                	push   %r13
   1400041a6:	41 54                	push   %r12
   1400041a8:	55                   	push   %rbp
   1400041a9:	57                   	push   %rdi
   1400041aa:	56                   	push   %rsi
   1400041ab:	53                   	push   %rbx
   1400041ac:	48 81 ec a8 00 00 00 	sub    $0xa8,%rsp
   1400041b3:	4c 8b a4 24 10 01 00 	mov    0x110(%rsp),%r12
   1400041ba:	00 
   1400041bb:	89 cf                	mov    %ecx,%edi
   1400041bd:	48 89 d5             	mov    %rdx,%rbp
   1400041c0:	44 89 c3             	mov    %r8d,%ebx
   1400041c3:	4c 89 ce             	mov    %r9,%rsi
   1400041c6:	e8 a5 30 00 00       	call   140007270 <_errno>
   1400041cb:	0f be 0e             	movsbl (%rsi),%ecx
   1400041ce:	81 e7 00 60 00 00    	and    $0x6000,%edi
   1400041d4:	31 d2                	xor    %edx,%edx
   1400041d6:	8b 00                	mov    (%rax),%eax
   1400041d8:	89 9c 24 98 00 00 00 	mov    %ebx,0x98(%rsp)
   1400041df:	48 8d 5e 01          	lea    0x1(%rsi),%rbx
   1400041e3:	48 89 6c 24 70       	mov    %rbp,0x70(%rsp)
   1400041e8:	89 44 24 2c          	mov    %eax,0x2c(%rsp)
   1400041ec:	48 b8 ff ff ff ff fd 	movabs $0xfffffffdffffffff,%rax
   1400041f3:	ff ff ff 
   1400041f6:	48 89 84 24 80 00 00 	mov    %rax,0x80(%rsp)
   1400041fd:	00 
   1400041fe:	31 c0                	xor    %eax,%eax
   140004200:	89 7c 24 78          	mov    %edi,0x78(%rsp)
   140004204:	c7 44 24 7c ff ff ff 	movl   $0xffffffff,0x7c(%rsp)
   14000420b:	ff 
   14000420c:	66 89 84 24 88 00 00 	mov    %ax,0x88(%rsp)
   140004213:	00 
   140004214:	c7 84 24 8c 00 00 00 	movl   $0x0,0x8c(%rsp)
   14000421b:	00 00 00 00 
   14000421f:	66 89 94 24 90 00 00 	mov    %dx,0x90(%rsp)
   140004226:	00 
   140004227:	c7 84 24 94 00 00 00 	movl   $0x0,0x94(%rsp)
   14000422e:	00 00 00 00 
   140004232:	c7 84 24 9c 00 00 00 	movl   $0xffffffff,0x9c(%rsp)
   140004239:	ff ff ff ff 
   14000423d:	85 c9                	test   %ecx,%ecx
   14000423f:	0f 84 da 00 00 00    	je     14000431f <__mingw_pformat+0x17f>
   140004245:	4c 8d 2d d4 50 00 00 	lea    0x50d4(%rip),%r13        # 140009320 <.rdata+0x20>
   14000424c:	eb 1b                	jmp    140004269 <__mingw_pformat+0xc9>
   14000424e:	66 90                	xchg   %ax,%ax
   140004250:	48 8d 54 24 70       	lea    0x70(%rsp),%rdx
   140004255:	e8 86 e5 ff ff       	call   1400027e0 <__pformat_putc>
   14000425a:	0f be 0b             	movsbl (%rbx),%ecx
   14000425d:	48 83 c3 01          	add    $0x1,%rbx
   140004261:	85 c9                	test   %ecx,%ecx
   140004263:	0f 84 af 00 00 00    	je     140004318 <__mingw_pformat+0x178>
   140004269:	83 f9 25             	cmp    $0x25,%ecx
   14000426c:	75 e2                	jne    140004250 <__mingw_pformat+0xb0>
   14000426e:	0f b6 03             	movzbl (%rbx),%eax
   140004271:	89 7c 24 78          	mov    %edi,0x78(%rsp)
   140004275:	48 c7 44 24 7c ff ff 	movq   $0xffffffffffffffff,0x7c(%rsp)
   14000427c:	ff ff 
   14000427e:	84 c0                	test   %al,%al
   140004280:	0f 84 92 00 00 00    	je     140004318 <__mingw_pformat+0x178>
   140004286:	48 89 de             	mov    %rbx,%rsi
   140004289:	4c 8d 54 24 7c       	lea    0x7c(%rsp),%r10
   14000428e:	45 31 ff             	xor    %r15d,%r15d
   140004291:	45 31 f6             	xor    %r14d,%r14d
   140004294:	41 bb 03 00 00 00    	mov    $0x3,%r11d
   14000429a:	8d 50 e0             	lea    -0x20(%rax),%edx
   14000429d:	48 8d 6e 01          	lea    0x1(%rsi),%rbp
   1400042a1:	0f be c8             	movsbl %al,%ecx
   1400042a4:	80 fa 5a             	cmp    $0x5a,%dl
   1400042a7:	77 17                	ja     1400042c0 <__mingw_pformat+0x120>
   1400042a9:	0f b6 d2             	movzbl %dl,%edx
   1400042ac:	49 63 54 95 00       	movslq 0x0(%r13,%rdx,4),%rdx
   1400042b1:	4c 01 ea             	add    %r13,%rdx
   1400042b4:	ff e2                	jmp    *%rdx
   1400042b6:	66 2e 0f 1f 84 00 00 	cs nopw 0x0(%rax,%rax,1)
   1400042bd:	00 00 00 
   1400042c0:	83 e8 30             	sub    $0x30,%eax
   1400042c3:	3c 09                	cmp    $0x9,%al
   1400042c5:	0f 87 ad 06 00 00    	ja     140004978 <__mingw_pformat+0x7d8>
   1400042cb:	41 83 fe 03          	cmp    $0x3,%r14d
   1400042cf:	0f 87 a3 06 00 00    	ja     140004978 <__mingw_pformat+0x7d8>
   1400042d5:	45 85 f6             	test   %r14d,%r14d
   1400042d8:	0f 85 63 06 00 00    	jne    140004941 <__mingw_pformat+0x7a1>
   1400042de:	41 be 01 00 00 00    	mov    $0x1,%r14d
   1400042e4:	4d 85 d2             	test   %r10,%r10
   1400042e7:	0f 84 ab 04 00 00    	je     140004798 <__mingw_pformat+0x5f8>
   1400042ed:	41 8b 02             	mov    (%r10),%eax
   1400042f0:	85 c0                	test   %eax,%eax
   1400042f2:	0f 88 56 06 00 00    	js     14000494e <__mingw_pformat+0x7ae>
   1400042f8:	8d 04 80             	lea    (%rax,%rax,4),%eax
   1400042fb:	8d 44 41 d0          	lea    -0x30(%rcx,%rax,2),%eax
   1400042ff:	41 89 02             	mov    %eax,(%r10)
   140004302:	0f b6 46 01          	movzbl 0x1(%rsi),%eax
   140004306:	48 89 ee             	mov    %rbp,%rsi
   140004309:	0f 1f 80 00 00 00 00 	nopl   0x0(%rax)
   140004310:	84 c0                	test   %al,%al
   140004312:	75 86                	jne    14000429a <__mingw_pformat+0xfa>
   140004314:	0f 1f 40 00          	nopl   0x0(%rax)
   140004318:	8b 8c 24 94 00 00 00 	mov    0x94(%rsp),%ecx
   14000431f:	89 c8                	mov    %ecx,%eax
   140004321:	48 81 c4 a8 00 00 00 	add    $0xa8,%rsp
   140004328:	5b                   	pop    %rbx
   140004329:	5e                   	pop    %rsi
   14000432a:	5f                   	pop    %rdi
   14000432b:	5d                   	pop    %rbp
   14000432c:	41 5c                	pop    %r12
   14000432e:	41 5d                	pop    %r13
   140004330:	41 5e                	pop    %r14
   140004332:	41 5f                	pop    %r15
   140004334:	c3                   	ret    
   140004335:	0f 1f 00             	nopl   (%rax)
   140004338:	49 8d 5c 24 08       	lea    0x8(%r12),%rbx
   14000433d:	41 83 ff 03          	cmp    $0x3,%r15d
   140004341:	0f 84 0c 07 00 00    	je     140004a53 <__mingw_pformat+0x8b3>
   140004347:	45 8b 0c 24          	mov    (%r12),%r9d
   14000434b:	41 83 ff 02          	cmp    $0x2,%r15d
   14000434f:	74 14                	je     140004365 <__mingw_pformat+0x1c5>
   140004351:	41 83 ff 01          	cmp    $0x1,%r15d
   140004355:	0f 84 4a 06 00 00    	je     1400049a5 <__mingw_pformat+0x805>
   14000435b:	41 83 ff 05          	cmp    $0x5,%r15d
   14000435f:	75 04                	jne    140004365 <__mingw_pformat+0x1c5>
   140004361:	45 0f b6 c9          	movzbl %r9b,%r9d
   140004365:	4c 89 4c 24 60       	mov    %r9,0x60(%rsp)
   14000436a:	83 f9 75             	cmp    $0x75,%ecx
   14000436d:	0f 84 ee 06 00 00    	je     140004a61 <__mingw_pformat+0x8c1>
   140004373:	4c 8d 44 24 70       	lea    0x70(%rsp),%r8
   140004378:	4c 89 ca             	mov    %r9,%rdx
   14000437b:	49 89 dc             	mov    %rbx,%r12
   14000437e:	48 89 eb             	mov    %rbp,%rbx
   140004381:	e8 fa f3 ff ff       	call   140003780 <__pformat_xint.isra.0>
   140004386:	e9 cf fe ff ff       	jmp    14000425a <__mingw_pformat+0xba>
   14000438b:	0f 1f 44 00 00       	nopl   0x0(%rax,%rax,1)
   140004390:	0f b6 46 01          	movzbl 0x1(%rsi),%eax
   140004394:	41 bf 03 00 00 00    	mov    $0x3,%r15d
   14000439a:	48 89 ee             	mov    %rbp,%rsi
   14000439d:	41 be 04 00 00 00    	mov    $0x4,%r14d
   1400043a3:	e9 68 ff ff ff       	jmp    140004310 <__mingw_pformat+0x170>
   1400043a8:	81 4c 24 78 80 00 00 	orl    $0x80,0x78(%rsp)
   1400043af:	00 
   1400043b0:	49 8d 5c 24 08       	lea    0x8(%r12),%rbx
   1400043b5:	41 83 ff 03          	cmp    $0x3,%r15d
   1400043b9:	0f 84 86 06 00 00    	je     140004a45 <__mingw_pformat+0x8a5>
   1400043bf:	49 63 0c 24          	movslq (%r12),%rcx
   1400043c3:	41 83 ff 02          	cmp    $0x2,%r15d
   1400043c7:	74 14                	je     1400043dd <__mingw_pformat+0x23d>
   1400043c9:	41 83 ff 01          	cmp    $0x1,%r15d
   1400043cd:	0f 84 e0 05 00 00    	je     1400049b3 <__mingw_pformat+0x813>
   1400043d3:	41 83 ff 05          	cmp    $0x5,%r15d
   1400043d7:	75 04                	jne    1400043dd <__mingw_pformat+0x23d>
   1400043d9:	48 0f be c9          	movsbq %cl,%rcx
   1400043dd:	48 89 4c 24 60       	mov    %rcx,0x60(%rsp)
   1400043e2:	48 89 c8             	mov    %rcx,%rax
   1400043e5:	48 8d 54 24 70       	lea    0x70(%rsp),%rdx
   1400043ea:	49 89 dc             	mov    %rbx,%r12
   1400043ed:	48 89 eb             	mov    %rbp,%rbx
   1400043f0:	48 c1 f8 3f          	sar    $0x3f,%rax
   1400043f4:	48 89 44 24 68       	mov    %rax,0x68(%rsp)
   1400043f9:	e8 02 ed ff ff       	call   140003100 <__pformat_int.isra.0>
   1400043fe:	e9 57 fe ff ff       	jmp    14000425a <__mingw_pformat+0xba>
   140004403:	41 83 ef 02          	sub    $0x2,%r15d
   140004407:	49 8b 0c 24          	mov    (%r12),%rcx
   14000440b:	49 8d 5c 24 08       	lea    0x8(%r12),%rbx
   140004410:	41 83 ff 01          	cmp    $0x1,%r15d
   140004414:	0f 86 d5 04 00 00    	jbe    1400048ef <__mingw_pformat+0x74f>
   14000441a:	48 8d 54 24 70       	lea    0x70(%rsp),%rdx
   14000441f:	49 89 dc             	mov    %rbx,%r12
   140004422:	48 89 eb             	mov    %rbp,%rbx
   140004425:	e8 36 e6 ff ff       	call   140002a60 <__pformat_puts>
   14000442a:	e9 2b fe ff ff       	jmp    14000425a <__mingw_pformat+0xba>
   14000442f:	41 83 ef 02          	sub    $0x2,%r15d
   140004433:	41 8b 04 24          	mov    (%r12),%eax
   140004437:	49 8d 5c 24 08       	lea    0x8(%r12),%rbx
   14000443c:	c7 84 24 80 00 00 00 	movl   $0xffffffff,0x80(%rsp)
   140004443:	ff ff ff ff 
   140004447:	41 83 ff 01          	cmp    $0x1,%r15d
   14000444b:	0f 86 62 02 00 00    	jbe    1400046b3 <__mingw_pformat+0x513>
   140004451:	48 8d 4c 24 60       	lea    0x60(%rsp),%rcx
   140004456:	4c 8d 44 24 70       	lea    0x70(%rsp),%r8
   14000445b:	88 44 24 60          	mov    %al,0x60(%rsp)
   14000445f:	49 89 dc             	mov    %rbx,%r12
   140004462:	ba 01 00 00 00       	mov    $0x1,%edx
   140004467:	48 89 eb             	mov    %rbp,%rbx
   14000446a:	e8 01 e5 ff ff       	call   140002970 <__pformat_putchars>
   14000446f:	e9 e6 fd ff ff       	jmp    14000425a <__mingw_pformat+0xba>
   140004474:	45 85 f6             	test   %r14d,%r14d
   140004477:	0f 85 1b 03 00 00    	jne    140004798 <__mingw_pformat+0x5f8>
   14000447d:	0f b6 46 01          	movzbl 0x1(%rsi),%eax
   140004481:	81 4c 24 78 00 04 00 	orl    $0x400,0x78(%rsp)
   140004488:	00 
   140004489:	48 89 ee             	mov    %rbp,%rsi
   14000448c:	e9 7f fe ff ff       	jmp    140004310 <__mingw_pformat+0x170>
   140004491:	0f b6 46 01          	movzbl 0x1(%rsi),%eax
   140004495:	3c 36                	cmp    $0x36,%al
   140004497:	0f 84 85 05 00 00    	je     140004a22 <__mingw_pformat+0x882>
   14000449d:	3c 33                	cmp    $0x33,%al
   14000449f:	0f 84 c9 04 00 00    	je     14000496e <__mingw_pformat+0x7ce>
   1400044a5:	48 89 ee             	mov    %rbp,%rsi
   1400044a8:	41 bf 03 00 00 00    	mov    $0x3,%r15d
   1400044ae:	41 be 04 00 00 00    	mov    $0x4,%r14d
   1400044b4:	e9 57 fe ff ff       	jmp    140004310 <__mingw_pformat+0x170>
   1400044b9:	0f b6 46 01          	movzbl 0x1(%rsi),%eax
   1400044bd:	83 4c 24 78 04       	orl    $0x4,0x78(%rsp)
   1400044c2:	48 89 ee             	mov    %rbp,%rsi
   1400044c5:	41 be 04 00 00 00    	mov    $0x4,%r14d
   1400044cb:	e9 40 fe ff ff       	jmp    140004310 <__mingw_pformat+0x170>
   1400044d0:	8b 44 24 78          	mov    0x78(%rsp),%eax
   1400044d4:	49 8b 14 24          	mov    (%r12),%rdx
   1400044d8:	49 83 c4 08          	add    $0x8,%r12
   1400044dc:	83 c8 20             	or     $0x20,%eax
   1400044df:	89 44 24 78          	mov    %eax,0x78(%rsp)
   1400044e3:	a8 04                	test   $0x4,%al
   1400044e5:	0f 84 3c 02 00 00    	je     140004727 <__mingw_pformat+0x587>
   1400044eb:	db 2a                	fldt   (%rdx)
   1400044ed:	48 8d 4c 24 40       	lea    0x40(%rsp),%rcx
   1400044f2:	48 8d 54 24 70       	lea    0x70(%rsp),%rdx
   1400044f7:	48 89 eb             	mov    %rbp,%rbx
   1400044fa:	db 7c 24 40          	fstpt  0x40(%rsp)
   1400044fe:	e8 2d eb ff ff       	call   140003030 <__pformat_float>
   140004503:	e9 52 fd ff ff       	jmp    14000425a <__mingw_pformat+0xba>
   140004508:	8b 44 24 78          	mov    0x78(%rsp),%eax
   14000450c:	49 8b 14 24          	mov    (%r12),%rdx
   140004510:	49 83 c4 08          	add    $0x8,%r12
   140004514:	83 c8 20             	or     $0x20,%eax
   140004517:	89 44 24 78          	mov    %eax,0x78(%rsp)
   14000451b:	a8 04                	test   $0x4,%al
   14000451d:	0f 84 3c 02 00 00    	je     14000475f <__mingw_pformat+0x5bf>
   140004523:	db 2a                	fldt   (%rdx)
   140004525:	48 8d 4c 24 40       	lea    0x40(%rsp),%rcx
   14000452a:	48 8d 54 24 70       	lea    0x70(%rsp),%rdx
   14000452f:	48 89 eb             	mov    %rbp,%rbx
   140004532:	db 7c 24 40          	fstpt  0x40(%rsp)
   140004536:	e8 d5 f0 ff ff       	call   140003610 <__pformat_gfloat>
   14000453b:	e9 1a fd ff ff       	jmp    14000425a <__mingw_pformat+0xba>
   140004540:	8b 44 24 78          	mov    0x78(%rsp),%eax
   140004544:	49 8b 14 24          	mov    (%r12),%rdx
   140004548:	49 83 c4 08          	add    $0x8,%r12
   14000454c:	83 c8 20             	or     $0x20,%eax
   14000454f:	89 44 24 78          	mov    %eax,0x78(%rsp)
   140004553:	a8 04                	test   $0x4,%al
   140004555:	0f 84 94 01 00 00    	je     1400046ef <__mingw_pformat+0x54f>
   14000455b:	db 2a                	fldt   (%rdx)
   14000455d:	48 8d 4c 24 40       	lea    0x40(%rsp),%rcx
   140004562:	48 8d 54 24 70       	lea    0x70(%rsp),%rdx
   140004567:	48 89 eb             	mov    %rbp,%rbx
   14000456a:	db 7c 24 40          	fstpt  0x40(%rsp)
   14000456e:	e8 ed ef ff ff       	call   140003560 <__pformat_efloat>
   140004573:	e9 e2 fc ff ff       	jmp    14000425a <__mingw_pformat+0xba>
   140004578:	0f b6 46 01          	movzbl 0x1(%rsi),%eax
   14000457c:	3c 6c                	cmp    $0x6c,%al
   14000457e:	0f 84 85 04 00 00    	je     140004a09 <__mingw_pformat+0x869>
   140004584:	48 89 ee             	mov    %rbp,%rsi
   140004587:	41 bf 02 00 00 00    	mov    $0x2,%r15d
   14000458d:	41 be 04 00 00 00    	mov    $0x4,%r14d
   140004593:	e9 78 fd ff ff       	jmp    140004310 <__mingw_pformat+0x170>
   140004598:	0f b6 46 01          	movzbl 0x1(%rsi),%eax
   14000459c:	3c 68                	cmp    $0x68,%al
   14000459e:	0f 84 4c 04 00 00    	je     1400049f0 <__mingw_pformat+0x850>
   1400045a4:	48 89 ee             	mov    %rbp,%rsi
   1400045a7:	41 bf 01 00 00 00    	mov    $0x1,%r15d
   1400045ad:	41 be 04 00 00 00    	mov    $0x4,%r14d
   1400045b3:	e9 58 fd ff ff       	jmp    140004310 <__mingw_pformat+0x170>
   1400045b8:	8b 4c 24 2c          	mov    0x2c(%rsp),%ecx
   1400045bc:	48 89 eb             	mov    %rbp,%rbx
   1400045bf:	e8 3c 2c 00 00       	call   140007200 <strerror>
   1400045c4:	48 8d 54 24 70       	lea    0x70(%rsp),%rdx
   1400045c9:	48 89 c1             	mov    %rax,%rcx
   1400045cc:	e8 8f e4 ff ff       	call   140002a60 <__pformat_puts>
   1400045d1:	e9 84 fc ff ff       	jmp    14000425a <__mingw_pformat+0xba>
   1400045d6:	49 8b 14 24          	mov    (%r12),%rdx
   1400045da:	48 63 84 24 94 00 00 	movslq 0x94(%rsp),%rax
   1400045e1:	00 
   1400045e2:	49 83 c4 08          	add    $0x8,%r12
   1400045e6:	41 83 ff 05          	cmp    $0x5,%r15d
   1400045ea:	0f 84 f6 03 00 00    	je     1400049e6 <__mingw_pformat+0x846>
   1400045f0:	41 83 ff 01          	cmp    $0x1,%r15d
   1400045f4:	0f 84 8c 04 00 00    	je     140004a86 <__mingw_pformat+0x8e6>
   1400045fa:	41 83 ff 02          	cmp    $0x2,%r15d
   1400045fe:	74 0a                	je     14000460a <__mingw_pformat+0x46a>
   140004600:	41 83 ff 03          	cmp    $0x3,%r15d
   140004604:	0f 84 c3 04 00 00    	je     140004acd <__mingw_pformat+0x92d>
   14000460a:	89 02                	mov    %eax,(%rdx)
   14000460c:	48 89 eb             	mov    %rbp,%rbx
   14000460f:	e9 46 fc ff ff       	jmp    14000425a <__mingw_pformat+0xba>
   140004614:	45 85 f6             	test   %r14d,%r14d
   140004617:	75 0a                	jne    140004623 <__mingw_pformat+0x483>
   140004619:	39 7c 24 78          	cmp    %edi,0x78(%rsp)
   14000461d:	0f 84 69 03 00 00    	je     14000498c <__mingw_pformat+0x7ec>
   140004623:	49 8b 14 24          	mov    (%r12),%rdx
   140004627:	49 8d 5c 24 08       	lea    0x8(%r12),%rbx
   14000462c:	4c 8d 44 24 70       	lea    0x70(%rsp),%r8
   140004631:	b9 78 00 00 00       	mov    $0x78,%ecx
   140004636:	48 c7 44 24 68 00 00 	movq   $0x0,0x68(%rsp)
   14000463d:	00 00 
   14000463f:	49 89 dc             	mov    %rbx,%r12
   140004642:	48 89 eb             	mov    %rbp,%rbx
   140004645:	48 89 54 24 60       	mov    %rdx,0x60(%rsp)
   14000464a:	e8 31 f1 ff ff       	call   140003780 <__pformat_xint.isra.0>
   14000464f:	e9 06 fc ff ff       	jmp    14000425a <__mingw_pformat+0xba>
   140004654:	8b 44 24 78          	mov    0x78(%rsp),%eax
   140004658:	49 8b 14 24          	mov    (%r12),%rdx
   14000465c:	49 83 c4 08          	add    $0x8,%r12
   140004660:	83 c8 20             	or     $0x20,%eax
   140004663:	89 44 24 78          	mov    %eax,0x78(%rsp)
   140004667:	a8 04                	test   $0x4,%al
   140004669:	0f 84 65 01 00 00    	je     1400047d4 <__mingw_pformat+0x634>
   14000466f:	db 2a                	fldt   (%rdx)
   140004671:	48 8d 4c 24 40       	lea    0x40(%rsp),%rcx
   140004676:	48 8d 54 24 70       	lea    0x70(%rsp),%rdx
   14000467b:	48 89 eb             	mov    %rbp,%rbx
   14000467e:	db 7c 24 40          	fstpt  0x40(%rsp)
   140004682:	e8 99 f5 ff ff       	call   140003c20 <__pformat_xldouble>
   140004687:	e9 ce fb ff ff       	jmp    14000425a <__mingw_pformat+0xba>
   14000468c:	48 8d 54 24 70       	lea    0x70(%rsp),%rdx
   140004691:	b9 25 00 00 00       	mov    $0x25,%ecx
   140004696:	48 89 eb             	mov    %rbp,%rbx
   140004699:	e8 42 e1 ff ff       	call   1400027e0 <__pformat_putc>
   14000469e:	e9 b7 fb ff ff       	jmp    14000425a <__mingw_pformat+0xba>
   1400046a3:	c7 84 24 80 00 00 00 	movl   $0xffffffff,0x80(%rsp)
   1400046aa:	ff ff ff ff 
   1400046ae:	49 8d 5c 24 08       	lea    0x8(%r12),%rbx
   1400046b3:	41 8b 04 24          	mov    (%r12),%eax
   1400046b7:	48 8d 4c 24 60       	lea    0x60(%rsp),%rcx
   1400046bc:	4c 8d 44 24 70       	lea    0x70(%rsp),%r8
   1400046c1:	49 89 dc             	mov    %rbx,%r12
   1400046c4:	ba 01 00 00 00       	mov    $0x1,%edx
   1400046c9:	48 89 eb             	mov    %rbp,%rbx
   1400046cc:	66 89 44 24 60       	mov    %ax,0x60(%rsp)
   1400046d1:	e8 6a e1 ff ff       	call   140002840 <__pformat_wputchars>
   1400046d6:	e9 7f fb ff ff       	jmp    14000425a <__mingw_pformat+0xba>
   1400046db:	8b 44 24 78          	mov    0x78(%rsp),%eax
   1400046df:	49 8b 14 24          	mov    (%r12),%rdx
   1400046e3:	49 83 c4 08          	add    $0x8,%r12
   1400046e7:	a8 04                	test   $0x4,%al
   1400046e9:	0f 85 6c fe ff ff    	jne    14000455b <__mingw_pformat+0x3bb>
   1400046ef:	48 89 54 24 30       	mov    %rdx,0x30(%rsp)
   1400046f4:	dd 44 24 30          	fldl   0x30(%rsp)
   1400046f8:	48 8d 54 24 70       	lea    0x70(%rsp),%rdx
   1400046fd:	48 89 eb             	mov    %rbp,%rbx
   140004700:	48 8d 4c 24 40       	lea    0x40(%rsp),%rcx
   140004705:	db 7c 24 40          	fstpt  0x40(%rsp)
   140004709:	e8 52 ee ff ff       	call   140003560 <__pformat_efloat>
   14000470e:	e9 47 fb ff ff       	jmp    14000425a <__mingw_pformat+0xba>
   140004713:	8b 44 24 78          	mov    0x78(%rsp),%eax
   140004717:	49 8b 14 24          	mov    (%r12),%rdx
   14000471b:	49 83 c4 08          	add    $0x8,%r12
   14000471f:	a8 04                	test   $0x4,%al
   140004721:	0f 85 c4 fd ff ff    	jne    1400044eb <__mingw_pformat+0x34b>
   140004727:	48 89 54 24 30       	mov    %rdx,0x30(%rsp)
   14000472c:	dd 44 24 30          	fldl   0x30(%rsp)
   140004730:	48 8d 54 24 70       	lea    0x70(%rsp),%rdx
   140004735:	48 89 eb             	mov    %rbp,%rbx
   140004738:	48 8d 4c 24 40       	lea    0x40(%rsp),%rcx
   14000473d:	db 7c 24 40          	fstpt  0x40(%rsp)
   140004741:	e8 ea e8 ff ff       	call   140003030 <__pformat_float>
   140004746:	e9 0f fb ff ff       	jmp    14000425a <__mingw_pformat+0xba>
   14000474b:	8b 44 24 78          	mov    0x78(%rsp),%eax
   14000474f:	49 8b 14 24          	mov    (%r12),%rdx
   140004753:	49 83 c4 08          	add    $0x8,%r12
   140004757:	a8 04                	test   $0x4,%al
   140004759:	0f 85 c4 fd ff ff    	jne    140004523 <__mingw_pformat+0x383>
   14000475f:	48 89 54 24 30       	mov    %rdx,0x30(%rsp)
   140004764:	dd 44 24 30          	fldl   0x30(%rsp)
   140004768:	48 8d 54 24 70       	lea    0x70(%rsp),%rdx
   14000476d:	48 89 eb             	mov    %rbp,%rbx
   140004770:	48 8d 4c 24 40       	lea    0x40(%rsp),%rcx
   140004775:	db 7c 24 40          	fstpt  0x40(%rsp)
   140004779:	e8 92 ee ff ff       	call   140003610 <__pformat_gfloat>
   14000477e:	e9 d7 fa ff ff       	jmp    14000425a <__mingw_pformat+0xba>
   140004783:	45 85 f6             	test   %r14d,%r14d
   140004786:	0f 85 aa 01 00 00    	jne    140004936 <__mingw_pformat+0x796>
   14000478c:	81 4c 24 78 00 02 00 	orl    $0x200,0x78(%rsp)
   140004793:	00 
   140004794:	0f 1f 40 00          	nopl   0x0(%rax)
   140004798:	0f b6 46 01          	movzbl 0x1(%rsi),%eax
   14000479c:	48 89 ee             	mov    %rbp,%rsi
   14000479f:	e9 6c fb ff ff       	jmp    140004310 <__mingw_pformat+0x170>
   1400047a4:	41 83 fe 01          	cmp    $0x1,%r14d
   1400047a8:	0f 86 13 02 00 00    	jbe    1400049c1 <__mingw_pformat+0x821>
   1400047ae:	0f b6 46 01          	movzbl 0x1(%rsi),%eax
   1400047b2:	41 be 04 00 00 00    	mov    $0x4,%r14d
   1400047b8:	48 89 ee             	mov    %rbp,%rsi
   1400047bb:	e9 50 fb ff ff       	jmp    140004310 <__mingw_pformat+0x170>
   1400047c0:	8b 44 24 78          	mov    0x78(%rsp),%eax
   1400047c4:	49 8b 14 24          	mov    (%r12),%rdx
   1400047c8:	49 83 c4 08          	add    $0x8,%r12
   1400047cc:	a8 04                	test   $0x4,%al
   1400047ce:	0f 85 9b fe ff ff    	jne    14000466f <__mingw_pformat+0x4cf>
   1400047d4:	48 89 54 24 30       	mov    %rdx,0x30(%rsp)
   1400047d9:	dd 44 24 30          	fldl   0x30(%rsp)
   1400047dd:	48 8d 54 24 70       	lea    0x70(%rsp),%rdx
   1400047e2:	48 89 eb             	mov    %rbp,%rbx
   1400047e5:	48 8d 4c 24 40       	lea    0x40(%rsp),%rcx
   1400047ea:	db 7c 24 40          	fstpt  0x40(%rsp)
   1400047ee:	e8 2d f4 ff ff       	call   140003c20 <__pformat_xldouble>
   1400047f3:	e9 62 fa ff ff       	jmp    14000425a <__mingw_pformat+0xba>
   1400047f8:	45 85 f6             	test   %r14d,%r14d
   1400047fb:	75 9b                	jne    140004798 <__mingw_pformat+0x5f8>
   1400047fd:	0f b6 46 01          	movzbl 0x1(%rsi),%eax
   140004801:	83 4c 24 78 40       	orl    $0x40,0x78(%rsp)
   140004806:	48 89 ee             	mov    %rbp,%rsi
   140004809:	e9 02 fb ff ff       	jmp    140004310 <__mingw_pformat+0x170>
   14000480e:	45 85 f6             	test   %r14d,%r14d
   140004811:	75 85                	jne    140004798 <__mingw_pformat+0x5f8>
   140004813:	0f b6 46 01          	movzbl 0x1(%rsi),%eax
   140004817:	81 4c 24 78 00 08 00 	orl    $0x800,0x78(%rsp)
   14000481e:	00 
   14000481f:	48 89 ee             	mov    %rbp,%rsi
   140004822:	e9 e9 fa ff ff       	jmp    140004310 <__mingw_pformat+0x170>
   140004827:	4d 85 d2             	test   %r10,%r10
   14000482a:	74 82                	je     1400047ae <__mingw_pformat+0x60e>
   14000482c:	41 f7 c6 fd ff ff ff 	test   $0xfffffffd,%r14d
   140004833:	0f 85 20 01 00 00    	jne    140004959 <__mingw_pformat+0x7b9>
   140004839:	41 8b 04 24          	mov    (%r12),%eax
   14000483d:	49 8d 54 24 08       	lea    0x8(%r12),%rdx
   140004842:	41 89 02             	mov    %eax,(%r10)
   140004845:	85 c0                	test   %eax,%eax
   140004847:	0f 88 44 02 00 00    	js     140004a91 <__mingw_pformat+0x8f1>
   14000484d:	0f b6 46 01          	movzbl 0x1(%rsi),%eax
   140004851:	49 89 d4             	mov    %rdx,%r12
   140004854:	48 89 ee             	mov    %rbp,%rsi
   140004857:	45 31 d2             	xor    %r10d,%r10d
   14000485a:	e9 b1 fa ff ff       	jmp    140004310 <__mingw_pformat+0x170>
   14000485f:	45 85 f6             	test   %r14d,%r14d
   140004862:	0f 85 30 ff ff ff    	jne    140004798 <__mingw_pformat+0x5f8>
   140004868:	81 4c 24 78 00 01 00 	orl    $0x100,0x78(%rsp)
   14000486f:	00 
   140004870:	e9 23 ff ff ff       	jmp    140004798 <__mingw_pformat+0x5f8>
   140004875:	45 85 f6             	test   %r14d,%r14d
   140004878:	0f 85 1a ff ff ff    	jne    140004798 <__mingw_pformat+0x5f8>
   14000487e:	4c 8d 4c 24 60       	lea    0x60(%rsp),%r9
   140004883:	4c 89 54 24 38       	mov    %r10,0x38(%rsp)
   140004888:	81 4c 24 78 00 10 00 	orl    $0x1000,0x78(%rsp)
   14000488f:	00 
   140004890:	4c 89 4c 24 30       	mov    %r9,0x30(%rsp)
   140004895:	c7 44 24 60 00 00 00 	movl   $0x0,0x60(%rsp)
   14000489c:	00 
   14000489d:	e8 7e 29 00 00       	call   140007220 <localeconv>
   1400048a2:	4c 8b 4c 24 30       	mov    0x30(%rsp),%r9
   1400048a7:	48 8d 4c 24 5e       	lea    0x5e(%rsp),%rcx
   1400048ac:	41 b8 10 00 00 00    	mov    $0x10,%r8d
   1400048b2:	48 8b 50 08          	mov    0x8(%rax),%rdx
   1400048b6:	e8 75 2b 00 00       	call   140007430 <mbrtowc>
   1400048bb:	4c 8b 54 24 38       	mov    0x38(%rsp),%r10
   1400048c0:	41 bb 03 00 00 00    	mov    $0x3,%r11d
   1400048c6:	85 c0                	test   %eax,%eax
   1400048c8:	7e 0d                	jle    1400048d7 <__mingw_pformat+0x737>
   1400048ca:	0f b7 54 24 5e       	movzwl 0x5e(%rsp),%edx
   1400048cf:	66 89 94 24 90 00 00 	mov    %dx,0x90(%rsp)
   1400048d6:	00 
   1400048d7:	89 84 24 8c 00 00 00 	mov    %eax,0x8c(%rsp)
   1400048de:	0f b6 46 01          	movzbl 0x1(%rsi),%eax
   1400048e2:	48 89 ee             	mov    %rbp,%rsi
   1400048e5:	e9 26 fa ff ff       	jmp    140004310 <__mingw_pformat+0x170>
   1400048ea:	49 8d 5c 24 08       	lea    0x8(%r12),%rbx
   1400048ef:	4d 8b 24 24          	mov    (%r12),%r12
   1400048f3:	48 8d 05 16 4a 00 00 	lea    0x4a16(%rip),%rax        # 140009310 <.rdata+0x10>
   1400048fa:	4d 85 e4             	test   %r12,%r12
   1400048fd:	4c 0f 44 e0          	cmove  %rax,%r12
   140004901:	8b 84 24 80 00 00 00 	mov    0x80(%rsp),%eax
   140004908:	85 c0                	test   %eax,%eax
   14000490a:	0f 88 69 01 00 00    	js     140004a79 <__mingw_pformat+0x8d9>
   140004910:	48 63 d0             	movslq %eax,%rdx
   140004913:	4c 89 e1             	mov    %r12,%rcx
   140004916:	e8 95 28 00 00       	call   1400071b0 <wcsnlen>
   14000491b:	4c 89 e1             	mov    %r12,%rcx
   14000491e:	48 89 c2             	mov    %rax,%rdx
   140004921:	4c 8d 44 24 70       	lea    0x70(%rsp),%r8
   140004926:	49 89 dc             	mov    %rbx,%r12
   140004929:	e8 12 df ff ff       	call   140002840 <__pformat_wputchars>
   14000492e:	48 89 eb             	mov    %rbp,%rbx
   140004931:	e9 24 f9 ff ff       	jmp    14000425a <__mingw_pformat+0xba>
   140004936:	41 83 fe 03          	cmp    $0x3,%r14d
   14000493a:	77 3c                	ja     140004978 <__mingw_pformat+0x7d8>
   14000493c:	b9 30 00 00 00       	mov    $0x30,%ecx
   140004941:	41 83 fe 02          	cmp    $0x2,%r14d
   140004945:	45 0f 44 f3          	cmove  %r11d,%r14d
   140004949:	e9 96 f9 ff ff       	jmp    1400042e4 <__mingw_pformat+0x144>
   14000494e:	83 e9 30             	sub    $0x30,%ecx
   140004951:	41 89 0a             	mov    %ecx,(%r10)
   140004954:	e9 3f fe ff ff       	jmp    140004798 <__mingw_pformat+0x5f8>
   140004959:	0f b6 46 01          	movzbl 0x1(%rsi),%eax
   14000495d:	45 31 d2             	xor    %r10d,%r10d
   140004960:	48 89 ee             	mov    %rbp,%rsi
   140004963:	41 be 04 00 00 00    	mov    $0x4,%r14d
   140004969:	e9 a2 f9 ff ff       	jmp    140004310 <__mingw_pformat+0x170>
   14000496e:	80 7e 02 32          	cmpb   $0x32,0x2(%rsi)
   140004972:	0f 84 3c 01 00 00    	je     140004ab4 <__mingw_pformat+0x914>
   140004978:	48 8d 54 24 70       	lea    0x70(%rsp),%rdx
   14000497d:	b9 25 00 00 00       	mov    $0x25,%ecx
   140004982:	e8 59 de ff ff       	call   1400027e0 <__pformat_putc>
   140004987:	e9 ce f8 ff ff       	jmp    14000425a <__mingw_pformat+0xba>
   14000498c:	c7 84 24 80 00 00 00 	movl   $0x10,0x80(%rsp)
   140004993:	10 00 00 00 
   140004997:	89 f8                	mov    %edi,%eax
   140004999:	80 cc 02             	or     $0x2,%ah
   14000499c:	89 44 24 78          	mov    %eax,0x78(%rsp)
   1400049a0:	e9 7e fc ff ff       	jmp    140004623 <__mingw_pformat+0x483>
   1400049a5:	45 0f b7 c9          	movzwl %r9w,%r9d
   1400049a9:	4c 89 4c 24 60       	mov    %r9,0x60(%rsp)
   1400049ae:	e9 b7 f9 ff ff       	jmp    14000436a <__mingw_pformat+0x1ca>
   1400049b3:	48 0f bf c9          	movswq %cx,%rcx
   1400049b7:	48 89 4c 24 60       	mov    %rcx,0x60(%rsp)
   1400049bc:	e9 21 fa ff ff       	jmp    1400043e2 <__mingw_pformat+0x242>
   1400049c1:	0f b6 46 01          	movzbl 0x1(%rsi),%eax
   1400049c5:	41 be 02 00 00 00    	mov    $0x2,%r14d
   1400049cb:	48 89 ee             	mov    %rbp,%rsi
   1400049ce:	c7 84 24 80 00 00 00 	movl   $0x0,0x80(%rsp)
   1400049d5:	00 00 00 00 
   1400049d9:	4c 8d 94 24 80 00 00 	lea    0x80(%rsp),%r10
   1400049e0:	00 
   1400049e1:	e9 2a f9 ff ff       	jmp    140004310 <__mingw_pformat+0x170>
   1400049e6:	88 02                	mov    %al,(%rdx)
   1400049e8:	48 89 eb             	mov    %rbp,%rbx
   1400049eb:	e9 6a f8 ff ff       	jmp    14000425a <__mingw_pformat+0xba>
   1400049f0:	0f b6 46 02          	movzbl 0x2(%rsi),%eax
   1400049f4:	41 bf 05 00 00 00    	mov    $0x5,%r15d
   1400049fa:	48 83 c6 02          	add    $0x2,%rsi
   1400049fe:	41 be 04 00 00 00    	mov    $0x4,%r14d
   140004a04:	e9 07 f9 ff ff       	jmp    140004310 <__mingw_pformat+0x170>
   140004a09:	0f b6 46 02          	movzbl 0x2(%rsi),%eax
   140004a0d:	41 bf 03 00 00 00    	mov    $0x3,%r15d
   140004a13:	48 83 c6 02          	add    $0x2,%rsi
   140004a17:	41 be 04 00 00 00    	mov    $0x4,%r14d
   140004a1d:	e9 ee f8 ff ff       	jmp    140004310 <__mingw_pformat+0x170>
   140004a22:	80 7e 02 34          	cmpb   $0x34,0x2(%rsi)
   140004a26:	0f 85 4c ff ff ff    	jne    140004978 <__mingw_pformat+0x7d8>
   140004a2c:	0f b6 46 03          	movzbl 0x3(%rsi),%eax
   140004a30:	41 bf 03 00 00 00    	mov    $0x3,%r15d
   140004a36:	48 83 c6 03          	add    $0x3,%rsi
   140004a3a:	41 be 04 00 00 00    	mov    $0x4,%r14d
   140004a40:	e9 cb f8 ff ff       	jmp    140004310 <__mingw_pformat+0x170>
   140004a45:	49 8b 0c 24          	mov    (%r12),%rcx
   140004a49:	48 89 4c 24 60       	mov    %rcx,0x60(%rsp)
   140004a4e:	e9 8f f9 ff ff       	jmp    1400043e2 <__mingw_pformat+0x242>
   140004a53:	4d 8b 0c 24          	mov    (%r12),%r9
   140004a57:	4c 89 4c 24 60       	mov    %r9,0x60(%rsp)
   140004a5c:	e9 09 f9 ff ff       	jmp    14000436a <__mingw_pformat+0x1ca>
   140004a61:	48 8d 54 24 70       	lea    0x70(%rsp),%rdx
   140004a66:	4c 89 c9             	mov    %r9,%rcx
   140004a69:	49 89 dc             	mov    %rbx,%r12
   140004a6c:	48 89 eb             	mov    %rbp,%rbx
   140004a6f:	e8 8c e6 ff ff       	call   140003100 <__pformat_int.isra.0>
   140004a74:	e9 e1 f7 ff ff       	jmp    14000425a <__mingw_pformat+0xba>
   140004a79:	4c 89 e1             	mov    %r12,%rcx
   140004a7c:	e8 5f 27 00 00       	call   1400071e0 <wcslen>
   140004a81:	e9 95 fe ff ff       	jmp    14000491b <__mingw_pformat+0x77b>
   140004a86:	66 89 02             	mov    %ax,(%rdx)
   140004a89:	48 89 eb             	mov    %rbp,%rbx
   140004a8c:	e9 c9 f7 ff ff       	jmp    14000425a <__mingw_pformat+0xba>
   140004a91:	45 85 f6             	test   %r14d,%r14d
   140004a94:	75 42                	jne    140004ad8 <__mingw_pformat+0x938>
   140004a96:	0f b6 46 01          	movzbl 0x1(%rsi),%eax
   140004a9a:	f7 5c 24 7c          	negl   0x7c(%rsp)
   140004a9e:	49 89 d4             	mov    %rdx,%r12
   140004aa1:	48 89 ee             	mov    %rbp,%rsi
   140004aa4:	81 4c 24 78 00 04 00 	orl    $0x400,0x78(%rsp)
   140004aab:	00 
   140004aac:	45 31 d2             	xor    %r10d,%r10d
   140004aaf:	e9 5c f8 ff ff       	jmp    140004310 <__mingw_pformat+0x170>
   140004ab4:	0f b6 46 03          	movzbl 0x3(%rsi),%eax
   140004ab8:	41 bf 02 00 00 00    	mov    $0x2,%r15d
   140004abe:	48 83 c6 03          	add    $0x3,%rsi
   140004ac2:	41 be 04 00 00 00    	mov    $0x4,%r14d
   140004ac8:	e9 43 f8 ff ff       	jmp    140004310 <__mingw_pformat+0x170>
   140004acd:	48 89 02             	mov    %rax,(%rdx)
   140004ad0:	48 89 eb             	mov    %rbp,%rbx
   140004ad3:	e9 82 f7 ff ff       	jmp    14000425a <__mingw_pformat+0xba>
   140004ad8:	c7 84 24 80 00 00 00 	movl   $0xffffffff,0x80(%rsp)
   140004adf:	ff ff ff ff 
   140004ae3:	e9 65 fd ff ff       	jmp    14000484d <__mingw_pformat+0x6ad>
   140004ae8:	90                   	nop
   140004ae9:	90                   	nop
   140004aea:	90                   	nop
   140004aeb:	90                   	nop
   140004aec:	90                   	nop
   140004aed:	90                   	nop
   140004aee:	90                   	nop
   140004aef:	90                   	nop

0000000140004af0 <__rv_alloc_D2A>:
   140004af0:	53                   	push   %rbx
   140004af1:	48 83 ec 20          	sub    $0x20,%rsp
   140004af5:	31 db                	xor    %ebx,%ebx
   140004af7:	83 f9 1b             	cmp    $0x1b,%ecx
   140004afa:	7e 18                	jle    140004b14 <__rv_alloc_D2A+0x24>
   140004afc:	b8 04 00 00 00       	mov    $0x4,%eax
   140004b01:	0f 1f 80 00 00 00 00 	nopl   0x0(%rax)
   140004b08:	01 c0                	add    %eax,%eax
   140004b0a:	83 c3 01             	add    $0x1,%ebx
   140004b0d:	8d 50 17             	lea    0x17(%rax),%edx
   140004b10:	39 ca                	cmp    %ecx,%edx
   140004b12:	7c f4                	jl     140004b08 <__rv_alloc_D2A+0x18>
   140004b14:	89 d9                	mov    %ebx,%ecx
   140004b16:	e8 95 1b 00 00       	call   1400066b0 <__Balloc_D2A>
   140004b1b:	89 18                	mov    %ebx,(%rax)
   140004b1d:	48 83 c0 04          	add    $0x4,%rax
   140004b21:	48 83 c4 20          	add    $0x20,%rsp
   140004b25:	5b                   	pop    %rbx
   140004b26:	c3                   	ret    
   140004b27:	66 0f 1f 84 00 00 00 	nopw   0x0(%rax,%rax,1)
   140004b2e:	00 00 

0000000140004b30 <__nrv_alloc_D2A>:
   140004b30:	57                   	push   %rdi
   140004b31:	56                   	push   %rsi
   140004b32:	53                   	push   %rbx
   140004b33:	48 83 ec 20          	sub    $0x20,%rsp
   140004b37:	48 89 ce             	mov    %rcx,%rsi
   140004b3a:	48 89 d7             	mov    %rdx,%rdi
   140004b3d:	41 83 f8 1b          	cmp    $0x1b,%r8d
   140004b41:	7e 6d                	jle    140004bb0 <__nrv_alloc_D2A+0x80>
   140004b43:	b8 04 00 00 00       	mov    $0x4,%eax
   140004b48:	31 db                	xor    %ebx,%ebx
   140004b4a:	66 0f 1f 44 00 00    	nopw   0x0(%rax,%rax,1)
   140004b50:	01 c0                	add    %eax,%eax
   140004b52:	83 c3 01             	add    $0x1,%ebx
   140004b55:	8d 48 17             	lea    0x17(%rax),%ecx
   140004b58:	41 39 c8             	cmp    %ecx,%r8d
   140004b5b:	7f f3                	jg     140004b50 <__nrv_alloc_D2A+0x20>
   140004b5d:	89 d9                	mov    %ebx,%ecx
   140004b5f:	e8 4c 1b 00 00       	call   1400066b0 <__Balloc_D2A>
   140004b64:	48 8d 4e 01          	lea    0x1(%rsi),%rcx
   140004b68:	89 18                	mov    %ebx,(%rax)
   140004b6a:	0f b6 16             	movzbl (%rsi),%edx
   140004b6d:	4c 8d 48 04          	lea    0x4(%rax),%r9
   140004b71:	88 50 04             	mov    %dl,0x4(%rax)
   140004b74:	4c 89 c8             	mov    %r9,%rax
   140004b77:	84 d2                	test   %dl,%dl
   140004b79:	74 19                	je     140004b94 <__nrv_alloc_D2A+0x64>
   140004b7b:	0f 1f 44 00 00       	nopl   0x0(%rax,%rax,1)
   140004b80:	44 0f b6 01          	movzbl (%rcx),%r8d
   140004b84:	48 83 c0 01          	add    $0x1,%rax
   140004b88:	48 83 c1 01          	add    $0x1,%rcx
   140004b8c:	44 88 00             	mov    %r8b,(%rax)
   140004b8f:	45 84 c0             	test   %r8b,%r8b
   140004b92:	75 ec                	jne    140004b80 <__nrv_alloc_D2A+0x50>
   140004b94:	48 85 ff             	test   %rdi,%rdi
